; Listing generated by Microsoft (R) Optimizing Compiler Version 16.00.30319.01 

	TITLE	L:\Projetos\Pluganet\Assistencia Remota Pluganet\PHLCServer\PHLCServer.cpp
	.686P
	.XMM
	include listing.inc
	.model	flat

INCLUDELIB MSVCRTD
INCLUDELIB OLDNAMES

PUBLIC	?hSocket@@3IA					; hSocket
PUBLIC	?pDebugFile@@3PAU_iobuf@@A			; pDebugFile
PUBLIC	?exit_cmd@@3_NA					; exit_cmd
PUBLIC	?printdebug@@3_NA				; printdebug
PUBLIC	?nogetch@@3_NA					; nogetch
PUBLIC	?host_addr@@3PADA				; host_addr
PUBLIC	?mysql_addr@@3PADA				; mysql_addr
PUBLIC	?mysql_user@@3PADA				; mysql_user
PUBLIC	?mysql_pass@@3PADA				; mysql_pass
PUBLIC	?mysql_database@@3PADA				; mysql_database
PUBLIC	?host_port@@3HA					; host_port
PUBLIC	?connect_id@@3HA				; connect_id
PUBLIC	?host_maxuser@@3HA				; host_maxuser
PUBLIC	?host_socktype@@3HA				; host_socktype
PUBLIC	?mysql_cfgport@@3HA				; mysql_cfgport
PUBLIC	?hSLoopThread@@3PAXA				; hSLoopThread
PUBLIC	?dwSLoopThread@@3KA				; dwSLoopThread
PUBLIC	?pSLoopFunc@@3PAXA				; pSLoopFunc
PUBLIC	?pCLientFunc@@3PAXA				; pCLientFunc
PUBLIC	?smysql@@3VSimpleMysql@@A			; smysql
PUBLIC	?client_list@@3PAVClient@@A			; client_list
PUBLIC	?value@?$integral_constant@_N$0A@@tr1@std@@2_NB	; std::tr1::integral_constant<bool,0>::value
PUBLIC	?value@?$integral_constant@_N$00@tr1@std@@2_NB	; std::tr1::integral_constant<bool,1>::value
PUBLIC	?value@?$integral_constant@I$0A@@tr1@std@@2IB	; std::tr1::integral_constant<unsigned int,0>::value
PUBLIC	?_Rank@?$_Arithmetic_traits@_N@std@@2HB		; std::_Arithmetic_traits<bool>::_Rank
PUBLIC	?_Rank@?$_Arithmetic_traits@D@std@@2HB		; std::_Arithmetic_traits<char>::_Rank
PUBLIC	?_Rank@?$_Arithmetic_traits@C@std@@2HB		; std::_Arithmetic_traits<signed char>::_Rank
PUBLIC	?_Rank@?$_Arithmetic_traits@E@std@@2HB		; std::_Arithmetic_traits<unsigned char>::_Rank
PUBLIC	?_Rank@?$_Arithmetic_traits@F@std@@2HB		; std::_Arithmetic_traits<short>::_Rank
PUBLIC	?_Rank@?$_Arithmetic_traits@G@std@@2HB		; std::_Arithmetic_traits<unsigned short>::_Rank
PUBLIC	?_Rank@?$_Arithmetic_traits@H@std@@2HB		; std::_Arithmetic_traits<int>::_Rank
PUBLIC	?_Rank@?$_Arithmetic_traits@I@std@@2HB		; std::_Arithmetic_traits<unsigned int>::_Rank
PUBLIC	?_Rank@?$_Arithmetic_traits@J@std@@2HB		; std::_Arithmetic_traits<long>::_Rank
PUBLIC	?_Rank@?$_Arithmetic_traits@K@std@@2HB		; std::_Arithmetic_traits<unsigned long>::_Rank
PUBLIC	?_Rank@?$_Arithmetic_traits@_J@std@@2HB		; std::_Arithmetic_traits<__int64>::_Rank
PUBLIC	?_Rank@?$_Arithmetic_traits@_K@std@@2HB		; std::_Arithmetic_traits<unsigned __int64>::_Rank
PUBLIC	?_Rank@?$_Arithmetic_traits@M@std@@2HB		; std::_Arithmetic_traits<float>::_Rank
PUBLIC	?_Rank@?$_Arithmetic_traits@N@std@@2HB		; std::_Arithmetic_traits<double>::_Rank
PUBLIC	?_Rank@?$_Arithmetic_traits@O@std@@2HB		; std::_Arithmetic_traits<long double>::_Rank
PUBLIC	?collate@?$_Locbase@H@std@@2HB			; std::_Locbase<int>::collate
PUBLIC	?ctype@?$_Locbase@H@std@@2HB			; std::_Locbase<int>::ctype
PUBLIC	?monetary@?$_Locbase@H@std@@2HB			; std::_Locbase<int>::monetary
PUBLIC	?numeric@?$_Locbase@H@std@@2HB			; std::_Locbase<int>::numeric
PUBLIC	?time@?$_Locbase@H@std@@2HB			; std::_Locbase<int>::time
PUBLIC	?messages@?$_Locbase@H@std@@2HB			; std::_Locbase<int>::messages
PUBLIC	?all@?$_Locbase@H@std@@2HB			; std::_Locbase<int>::all
PUBLIC	?none@?$_Locbase@H@std@@2HB			; std::_Locbase<int>::none
PUBLIC	?skipws@?$_Iosb@H@std@@2W4_Fmtflags@12@B	; std::_Iosb<int>::skipws
PUBLIC	?unitbuf@?$_Iosb@H@std@@2W4_Fmtflags@12@B	; std::_Iosb<int>::unitbuf
PUBLIC	?uppercase@?$_Iosb@H@std@@2W4_Fmtflags@12@B	; std::_Iosb<int>::uppercase
PUBLIC	?showbase@?$_Iosb@H@std@@2W4_Fmtflags@12@B	; std::_Iosb<int>::showbase
PUBLIC	?showpoint@?$_Iosb@H@std@@2W4_Fmtflags@12@B	; std::_Iosb<int>::showpoint
PUBLIC	?showpos@?$_Iosb@H@std@@2W4_Fmtflags@12@B	; std::_Iosb<int>::showpos
PUBLIC	?left@?$_Iosb@H@std@@2W4_Fmtflags@12@B		; std::_Iosb<int>::left
PUBLIC	?right@?$_Iosb@H@std@@2W4_Fmtflags@12@B		; std::_Iosb<int>::right
PUBLIC	?internal@?$_Iosb@H@std@@2W4_Fmtflags@12@B	; std::_Iosb<int>::internal
PUBLIC	?dec@?$_Iosb@H@std@@2W4_Fmtflags@12@B		; std::_Iosb<int>::dec
PUBLIC	?oct@?$_Iosb@H@std@@2W4_Fmtflags@12@B		; std::_Iosb<int>::oct
PUBLIC	?hex@?$_Iosb@H@std@@2W4_Fmtflags@12@B		; std::_Iosb<int>::hex
PUBLIC	?scientific@?$_Iosb@H@std@@2W4_Fmtflags@12@B	; std::_Iosb<int>::scientific
PUBLIC	?fixed@?$_Iosb@H@std@@2W4_Fmtflags@12@B		; std::_Iosb<int>::fixed
PUBLIC	?hexfloat@?$_Iosb@H@std@@2W4_Fmtflags@12@B	; std::_Iosb<int>::hexfloat
PUBLIC	?boolalpha@?$_Iosb@H@std@@2W4_Fmtflags@12@B	; std::_Iosb<int>::boolalpha
PUBLIC	?_Stdio@?$_Iosb@H@std@@2W4_Fmtflags@12@B	; std::_Iosb<int>::_Stdio
PUBLIC	?adjustfield@?$_Iosb@H@std@@2W4_Fmtflags@12@B	; std::_Iosb<int>::adjustfield
PUBLIC	?basefield@?$_Iosb@H@std@@2W4_Fmtflags@12@B	; std::_Iosb<int>::basefield
PUBLIC	?floatfield@?$_Iosb@H@std@@2W4_Fmtflags@12@B	; std::_Iosb<int>::floatfield
PUBLIC	?goodbit@?$_Iosb@H@std@@2W4_Iostate@12@B	; std::_Iosb<int>::goodbit
PUBLIC	?eofbit@?$_Iosb@H@std@@2W4_Iostate@12@B		; std::_Iosb<int>::eofbit
PUBLIC	?failbit@?$_Iosb@H@std@@2W4_Iostate@12@B	; std::_Iosb<int>::failbit
PUBLIC	?badbit@?$_Iosb@H@std@@2W4_Iostate@12@B		; std::_Iosb<int>::badbit
PUBLIC	?_Hardfail@?$_Iosb@H@std@@2W4_Iostate@12@B	; std::_Iosb<int>::_Hardfail
PUBLIC	?in@?$_Iosb@H@std@@2W4_Openmode@12@B		; std::_Iosb<int>::in
PUBLIC	?out@?$_Iosb@H@std@@2W4_Openmode@12@B		; std::_Iosb<int>::out
PUBLIC	?ate@?$_Iosb@H@std@@2W4_Openmode@12@B		; std::_Iosb<int>::ate
PUBLIC	?app@?$_Iosb@H@std@@2W4_Openmode@12@B		; std::_Iosb<int>::app
PUBLIC	?trunc@?$_Iosb@H@std@@2W4_Openmode@12@B		; std::_Iosb<int>::trunc
PUBLIC	?_Nocreate@?$_Iosb@H@std@@2W4_Openmode@12@B	; std::_Iosb<int>::_Nocreate
PUBLIC	?_Noreplace@?$_Iosb@H@std@@2W4_Openmode@12@B	; std::_Iosb<int>::_Noreplace
PUBLIC	?binary@?$_Iosb@H@std@@2W4_Openmode@12@B	; std::_Iosb<int>::binary
PUBLIC	?beg@?$_Iosb@H@std@@2W4_Seekdir@12@B		; std::_Iosb<int>::beg
PUBLIC	?cur@?$_Iosb@H@std@@2W4_Seekdir@12@B		; std::_Iosb<int>::cur
PUBLIC	?end@?$_Iosb@H@std@@2W4_Seekdir@12@B		; std::_Iosb<int>::end
PUBLIC	?finish_getchmsg@@3PADA				; finish_getchmsg
_BSS	SEGMENT
?hSocket@@3IA DD 01H DUP (?)				; hSocket
?pDebugFile@@3PAU_iobuf@@A DD 01H DUP (?)		; pDebugFile
?exit_cmd@@3_NA DB 01H DUP (?)				; exit_cmd
	ALIGN	4

?printdebug@@3_NA DB 01H DUP (?)			; printdebug
	ALIGN	4

?nogetch@@3_NA DB 01H DUP (?)				; nogetch
	ALIGN	4

?host_addr@@3PADA DB 0fH DUP (?)			; host_addr
	ALIGN	4

?mysql_addr@@3PADA DB 0fH DUP (?)			; mysql_addr
	ALIGN	4

?mysql_user@@3PADA DB 041H DUP (?)			; mysql_user
	ALIGN	4

?mysql_pass@@3PADA DB 041H DUP (?)			; mysql_pass
	ALIGN	4

?mysql_database@@3PADA DB 041H DUP (?)			; mysql_database
	ALIGN	4

?host_port@@3HA DD 01H DUP (?)				; host_port
?connect_id@@3HA DD 01H DUP (?)				; connect_id
?host_maxuser@@3HA DD 01H DUP (?)			; host_maxuser
?host_socktype@@3HA DD 01H DUP (?)			; host_socktype
?mysql_cfgport@@3HA DD 01H DUP (?)			; mysql_cfgport
?hSLoopThread@@3PAXA DD 01H DUP (?)			; hSLoopThread
?dwSLoopThread@@3KA DD 01H DUP (?)			; dwSLoopThread
?pSLoopFunc@@3PAXA DD 01H DUP (?)			; pSLoopFunc
?pCLientFunc@@3PAXA DD 01H DUP (?)			; pCLientFunc
?smysql@@3VSimpleMysql@@A DD 01H DUP (?)		; smysql
?client_list@@3PAVClient@@A DD 01H DUP (?)		; client_list
_BSS	ENDS
_DATA	SEGMENT
?finish_getchmsg@@3PADA DB 'Pressione ENTER para finalizar o aplicativo', 00H ; finish_getchmsg
_DATA	ENDS
;	COMDAT ?end@?$_Iosb@H@std@@2W4_Seekdir@12@B
CONST	SEGMENT
?end@?$_Iosb@H@std@@2W4_Seekdir@12@B DD 02H		; std::_Iosb<int>::end
CONST	ENDS
;	COMDAT ?cur@?$_Iosb@H@std@@2W4_Seekdir@12@B
CONST	SEGMENT
?cur@?$_Iosb@H@std@@2W4_Seekdir@12@B DD 01H		; std::_Iosb<int>::cur
CONST	ENDS
;	COMDAT ?beg@?$_Iosb@H@std@@2W4_Seekdir@12@B
CONST	SEGMENT
?beg@?$_Iosb@H@std@@2W4_Seekdir@12@B DD 00H		; std::_Iosb<int>::beg
CONST	ENDS
;	COMDAT ?binary@?$_Iosb@H@std@@2W4_Openmode@12@B
CONST	SEGMENT
?binary@?$_Iosb@H@std@@2W4_Openmode@12@B DD 020H	; std::_Iosb<int>::binary
CONST	ENDS
;	COMDAT ?_Noreplace@?$_Iosb@H@std@@2W4_Openmode@12@B
CONST	SEGMENT
?_Noreplace@?$_Iosb@H@std@@2W4_Openmode@12@B DD 080H	; std::_Iosb<int>::_Noreplace
CONST	ENDS
;	COMDAT ?_Nocreate@?$_Iosb@H@std@@2W4_Openmode@12@B
CONST	SEGMENT
?_Nocreate@?$_Iosb@H@std@@2W4_Openmode@12@B DD 040H	; std::_Iosb<int>::_Nocreate
CONST	ENDS
;	COMDAT ?trunc@?$_Iosb@H@std@@2W4_Openmode@12@B
CONST	SEGMENT
?trunc@?$_Iosb@H@std@@2W4_Openmode@12@B DD 010H		; std::_Iosb<int>::trunc
CONST	ENDS
;	COMDAT ?app@?$_Iosb@H@std@@2W4_Openmode@12@B
CONST	SEGMENT
?app@?$_Iosb@H@std@@2W4_Openmode@12@B DD 08H		; std::_Iosb<int>::app
CONST	ENDS
;	COMDAT ?ate@?$_Iosb@H@std@@2W4_Openmode@12@B
CONST	SEGMENT
?ate@?$_Iosb@H@std@@2W4_Openmode@12@B DD 04H		; std::_Iosb<int>::ate
CONST	ENDS
;	COMDAT ?out@?$_Iosb@H@std@@2W4_Openmode@12@B
CONST	SEGMENT
?out@?$_Iosb@H@std@@2W4_Openmode@12@B DD 02H		; std::_Iosb<int>::out
CONST	ENDS
;	COMDAT ?in@?$_Iosb@H@std@@2W4_Openmode@12@B
CONST	SEGMENT
?in@?$_Iosb@H@std@@2W4_Openmode@12@B DD 01H		; std::_Iosb<int>::in
CONST	ENDS
;	COMDAT ?_Hardfail@?$_Iosb@H@std@@2W4_Iostate@12@B
CONST	SEGMENT
?_Hardfail@?$_Iosb@H@std@@2W4_Iostate@12@B DD 010H	; std::_Iosb<int>::_Hardfail
CONST	ENDS
;	COMDAT ?badbit@?$_Iosb@H@std@@2W4_Iostate@12@B
CONST	SEGMENT
?badbit@?$_Iosb@H@std@@2W4_Iostate@12@B DD 04H		; std::_Iosb<int>::badbit
CONST	ENDS
;	COMDAT ?failbit@?$_Iosb@H@std@@2W4_Iostate@12@B
CONST	SEGMENT
?failbit@?$_Iosb@H@std@@2W4_Iostate@12@B DD 02H		; std::_Iosb<int>::failbit
CONST	ENDS
;	COMDAT ?eofbit@?$_Iosb@H@std@@2W4_Iostate@12@B
CONST	SEGMENT
?eofbit@?$_Iosb@H@std@@2W4_Iostate@12@B DD 01H		; std::_Iosb<int>::eofbit
CONST	ENDS
;	COMDAT ?goodbit@?$_Iosb@H@std@@2W4_Iostate@12@B
CONST	SEGMENT
?goodbit@?$_Iosb@H@std@@2W4_Iostate@12@B DD 00H		; std::_Iosb<int>::goodbit
CONST	ENDS
;	COMDAT ?floatfield@?$_Iosb@H@std@@2W4_Fmtflags@12@B
CONST	SEGMENT
?floatfield@?$_Iosb@H@std@@2W4_Fmtflags@12@B DD 03000H	; std::_Iosb<int>::floatfield
CONST	ENDS
;	COMDAT ?basefield@?$_Iosb@H@std@@2W4_Fmtflags@12@B
CONST	SEGMENT
?basefield@?$_Iosb@H@std@@2W4_Fmtflags@12@B DD 0e00H	; std::_Iosb<int>::basefield
CONST	ENDS
;	COMDAT ?adjustfield@?$_Iosb@H@std@@2W4_Fmtflags@12@B
CONST	SEGMENT
?adjustfield@?$_Iosb@H@std@@2W4_Fmtflags@12@B DD 01c0H	; std::_Iosb<int>::adjustfield
CONST	ENDS
;	COMDAT ?_Stdio@?$_Iosb@H@std@@2W4_Fmtflags@12@B
CONST	SEGMENT
?_Stdio@?$_Iosb@H@std@@2W4_Fmtflags@12@B DD 08000H	; std::_Iosb<int>::_Stdio
CONST	ENDS
;	COMDAT ?boolalpha@?$_Iosb@H@std@@2W4_Fmtflags@12@B
CONST	SEGMENT
?boolalpha@?$_Iosb@H@std@@2W4_Fmtflags@12@B DD 04000H	; std::_Iosb<int>::boolalpha
CONST	ENDS
;	COMDAT ?hexfloat@?$_Iosb@H@std@@2W4_Fmtflags@12@B
CONST	SEGMENT
?hexfloat@?$_Iosb@H@std@@2W4_Fmtflags@12@B DD 03000H	; std::_Iosb<int>::hexfloat
CONST	ENDS
;	COMDAT ?fixed@?$_Iosb@H@std@@2W4_Fmtflags@12@B
CONST	SEGMENT
?fixed@?$_Iosb@H@std@@2W4_Fmtflags@12@B DD 02000H	; std::_Iosb<int>::fixed
CONST	ENDS
;	COMDAT ?scientific@?$_Iosb@H@std@@2W4_Fmtflags@12@B
CONST	SEGMENT
?scientific@?$_Iosb@H@std@@2W4_Fmtflags@12@B DD 01000H	; std::_Iosb<int>::scientific
CONST	ENDS
;	COMDAT ?hex@?$_Iosb@H@std@@2W4_Fmtflags@12@B
CONST	SEGMENT
?hex@?$_Iosb@H@std@@2W4_Fmtflags@12@B DD 0800H		; std::_Iosb<int>::hex
CONST	ENDS
;	COMDAT ?oct@?$_Iosb@H@std@@2W4_Fmtflags@12@B
CONST	SEGMENT
?oct@?$_Iosb@H@std@@2W4_Fmtflags@12@B DD 0400H		; std::_Iosb<int>::oct
CONST	ENDS
;	COMDAT ?dec@?$_Iosb@H@std@@2W4_Fmtflags@12@B
CONST	SEGMENT
?dec@?$_Iosb@H@std@@2W4_Fmtflags@12@B DD 0200H		; std::_Iosb<int>::dec
CONST	ENDS
;	COMDAT ?internal@?$_Iosb@H@std@@2W4_Fmtflags@12@B
CONST	SEGMENT
?internal@?$_Iosb@H@std@@2W4_Fmtflags@12@B DD 0100H	; std::_Iosb<int>::internal
CONST	ENDS
;	COMDAT ?right@?$_Iosb@H@std@@2W4_Fmtflags@12@B
CONST	SEGMENT
?right@?$_Iosb@H@std@@2W4_Fmtflags@12@B DD 080H		; std::_Iosb<int>::right
CONST	ENDS
;	COMDAT ?left@?$_Iosb@H@std@@2W4_Fmtflags@12@B
CONST	SEGMENT
?left@?$_Iosb@H@std@@2W4_Fmtflags@12@B DD 040H		; std::_Iosb<int>::left
CONST	ENDS
;	COMDAT ?showpos@?$_Iosb@H@std@@2W4_Fmtflags@12@B
CONST	SEGMENT
?showpos@?$_Iosb@H@std@@2W4_Fmtflags@12@B DD 020H	; std::_Iosb<int>::showpos
CONST	ENDS
;	COMDAT ?showpoint@?$_Iosb@H@std@@2W4_Fmtflags@12@B
CONST	SEGMENT
?showpoint@?$_Iosb@H@std@@2W4_Fmtflags@12@B DD 010H	; std::_Iosb<int>::showpoint
CONST	ENDS
;	COMDAT ?showbase@?$_Iosb@H@std@@2W4_Fmtflags@12@B
CONST	SEGMENT
?showbase@?$_Iosb@H@std@@2W4_Fmtflags@12@B DD 08H	; std::_Iosb<int>::showbase
CONST	ENDS
;	COMDAT ?uppercase@?$_Iosb@H@std@@2W4_Fmtflags@12@B
CONST	SEGMENT
?uppercase@?$_Iosb@H@std@@2W4_Fmtflags@12@B DD 04H	; std::_Iosb<int>::uppercase
CONST	ENDS
;	COMDAT ?unitbuf@?$_Iosb@H@std@@2W4_Fmtflags@12@B
CONST	SEGMENT
?unitbuf@?$_Iosb@H@std@@2W4_Fmtflags@12@B DD 02H	; std::_Iosb<int>::unitbuf
CONST	ENDS
;	COMDAT ?skipws@?$_Iosb@H@std@@2W4_Fmtflags@12@B
CONST	SEGMENT
?skipws@?$_Iosb@H@std@@2W4_Fmtflags@12@B DD 01H		; std::_Iosb<int>::skipws
CONST	ENDS
;	COMDAT ?none@?$_Locbase@H@std@@2HB
CONST	SEGMENT
?none@?$_Locbase@H@std@@2HB DD 00H			; std::_Locbase<int>::none
CONST	ENDS
;	COMDAT ?all@?$_Locbase@H@std@@2HB
CONST	SEGMENT
?all@?$_Locbase@H@std@@2HB DD 03fH			; std::_Locbase<int>::all
CONST	ENDS
;	COMDAT ?messages@?$_Locbase@H@std@@2HB
CONST	SEGMENT
?messages@?$_Locbase@H@std@@2HB DD 020H			; std::_Locbase<int>::messages
CONST	ENDS
;	COMDAT ?time@?$_Locbase@H@std@@2HB
CONST	SEGMENT
?time@?$_Locbase@H@std@@2HB DD 010H			; std::_Locbase<int>::time
CONST	ENDS
;	COMDAT ?numeric@?$_Locbase@H@std@@2HB
CONST	SEGMENT
?numeric@?$_Locbase@H@std@@2HB DD 08H			; std::_Locbase<int>::numeric
CONST	ENDS
;	COMDAT ?monetary@?$_Locbase@H@std@@2HB
CONST	SEGMENT
?monetary@?$_Locbase@H@std@@2HB DD 04H			; std::_Locbase<int>::monetary
CONST	ENDS
;	COMDAT ?ctype@?$_Locbase@H@std@@2HB
CONST	SEGMENT
?ctype@?$_Locbase@H@std@@2HB DD 02H			; std::_Locbase<int>::ctype
CONST	ENDS
;	COMDAT ?collate@?$_Locbase@H@std@@2HB
CONST	SEGMENT
?collate@?$_Locbase@H@std@@2HB DD 01H			; std::_Locbase<int>::collate
CONST	ENDS
;	COMDAT ?_Rank@?$_Arithmetic_traits@O@std@@2HB
CONST	SEGMENT
?_Rank@?$_Arithmetic_traits@O@std@@2HB DD 09H		; std::_Arithmetic_traits<long double>::_Rank
CONST	ENDS
;	COMDAT ?_Rank@?$_Arithmetic_traits@N@std@@2HB
CONST	SEGMENT
?_Rank@?$_Arithmetic_traits@N@std@@2HB DD 08H		; std::_Arithmetic_traits<double>::_Rank
CONST	ENDS
;	COMDAT ?_Rank@?$_Arithmetic_traits@M@std@@2HB
CONST	SEGMENT
?_Rank@?$_Arithmetic_traits@M@std@@2HB DD 07H		; std::_Arithmetic_traits<float>::_Rank
CONST	ENDS
;	COMDAT ?_Rank@?$_Arithmetic_traits@_K@std@@2HB
CONST	SEGMENT
?_Rank@?$_Arithmetic_traits@_K@std@@2HB DD 06H		; std::_Arithmetic_traits<unsigned __int64>::_Rank
CONST	ENDS
;	COMDAT ?_Rank@?$_Arithmetic_traits@_J@std@@2HB
CONST	SEGMENT
?_Rank@?$_Arithmetic_traits@_J@std@@2HB DD 06H		; std::_Arithmetic_traits<__int64>::_Rank
CONST	ENDS
;	COMDAT ?_Rank@?$_Arithmetic_traits@K@std@@2HB
CONST	SEGMENT
?_Rank@?$_Arithmetic_traits@K@std@@2HB DD 05H		; std::_Arithmetic_traits<unsigned long>::_Rank
CONST	ENDS
;	COMDAT ?_Rank@?$_Arithmetic_traits@J@std@@2HB
CONST	SEGMENT
?_Rank@?$_Arithmetic_traits@J@std@@2HB DD 05H		; std::_Arithmetic_traits<long>::_Rank
CONST	ENDS
;	COMDAT ?_Rank@?$_Arithmetic_traits@I@std@@2HB
CONST	SEGMENT
?_Rank@?$_Arithmetic_traits@I@std@@2HB DD 04H		; std::_Arithmetic_traits<unsigned int>::_Rank
CONST	ENDS
;	COMDAT ?_Rank@?$_Arithmetic_traits@H@std@@2HB
CONST	SEGMENT
?_Rank@?$_Arithmetic_traits@H@std@@2HB DD 04H		; std::_Arithmetic_traits<int>::_Rank
CONST	ENDS
;	COMDAT ?_Rank@?$_Arithmetic_traits@G@std@@2HB
CONST	SEGMENT
?_Rank@?$_Arithmetic_traits@G@std@@2HB DD 03H		; std::_Arithmetic_traits<unsigned short>::_Rank
CONST	ENDS
;	COMDAT ?_Rank@?$_Arithmetic_traits@F@std@@2HB
CONST	SEGMENT
?_Rank@?$_Arithmetic_traits@F@std@@2HB DD 03H		; std::_Arithmetic_traits<short>::_Rank
CONST	ENDS
;	COMDAT ?_Rank@?$_Arithmetic_traits@E@std@@2HB
CONST	SEGMENT
?_Rank@?$_Arithmetic_traits@E@std@@2HB DD 02H		; std::_Arithmetic_traits<unsigned char>::_Rank
CONST	ENDS
;	COMDAT ?_Rank@?$_Arithmetic_traits@C@std@@2HB
CONST	SEGMENT
?_Rank@?$_Arithmetic_traits@C@std@@2HB DD 02H		; std::_Arithmetic_traits<signed char>::_Rank
CONST	ENDS
;	COMDAT ?_Rank@?$_Arithmetic_traits@D@std@@2HB
CONST	SEGMENT
?_Rank@?$_Arithmetic_traits@D@std@@2HB DD 02H		; std::_Arithmetic_traits<char>::_Rank
CONST	ENDS
;	COMDAT ?_Rank@?$_Arithmetic_traits@_N@std@@2HB
CONST	SEGMENT
?_Rank@?$_Arithmetic_traits@_N@std@@2HB DD 01H		; std::_Arithmetic_traits<bool>::_Rank
CONST	ENDS
;	COMDAT ?value@?$integral_constant@I$0A@@tr1@std@@2IB
CONST	SEGMENT
?value@?$integral_constant@I$0A@@tr1@std@@2IB DD 00H	; std::tr1::integral_constant<unsigned int,0>::value
CONST	ENDS
;	COMDAT ?value@?$integral_constant@_N$00@tr1@std@@2_NB
CONST	SEGMENT
?value@?$integral_constant@_N$00@tr1@std@@2_NB DB 01H	; std::tr1::integral_constant<bool,1>::value
CONST	ENDS
;	COMDAT ?value@?$integral_constant@_N$0A@@tr1@std@@2_NB
CONST	SEGMENT
?value@?$integral_constant@_N$0A@@tr1@std@@2_NB DB 00H	; std::tr1::integral_constant<bool,0>::value
CONST	ENDS
PUBLIC	?finish@@YAXXZ					; finish
EXTRN	__imp__exit:PROC
EXTRN	__imp___getch:PROC
EXTRN	__imp__puts:PROC
EXTRN	__RTC_CheckEsp:PROC
EXTRN	__RTC_Shutdown:PROC
EXTRN	__RTC_InitBase:PROC
;	COMDAT rtc$TMZ
; File l:\projetos\pluganet\assistencia remota pluganet\phlcserver\phlcserver.cpp
rtc$TMZ	SEGMENT
__RTC_Shutdown.rtc$TMZ DD FLAT:__RTC_Shutdown
rtc$TMZ	ENDS
;	COMDAT rtc$IMZ
rtc$IMZ	SEGMENT
__RTC_InitBase.rtc$IMZ DD FLAT:__RTC_InitBase
; Function compile flags: /Odtp /RTCsu /ZI
rtc$IMZ	ENDS
;	COMDAT ?finish@@YAXXZ
_TEXT	SEGMENT
?finish@@YAXXZ PROC					; finish, COMDAT
; Line 33
	push	ebp
	mov	ebp, esp
	sub	esp, 192				; 000000c0H
	push	ebx
	push	esi
	push	edi
	lea	edi, DWORD PTR [ebp-192]
	mov	ecx, 48					; 00000030H
	mov	eax, -858993460				; ccccccccH
	rep stosd
; Line 34
	movzx	eax, BYTE PTR ?nogetch@@3_NA		; nogetch
	test	eax, eax
	jne	SHORT $LN1@finish
; Line 35
	mov	esi, esp
	push	OFFSET ?finish_getchmsg@@3PADA		; finish_getchmsg
	call	DWORD PTR __imp__puts
	add	esp, 4
	cmp	esi, esp
	call	__RTC_CheckEsp
; Line 36
	mov	esi, esp
	call	DWORD PTR __imp___getch
	cmp	esi, esp
	call	__RTC_CheckEsp
$LN1@finish:
; Line 38
	mov	esi, esp
	push	0
	call	DWORD PTR __imp__exit
	cmp	esi, esp
	call	__RTC_CheckEsp
$LN3@finish:
; Line 39
	pop	edi
	pop	esi
	pop	ebx
	add	esp, 192				; 000000c0H
	cmp	ebp, esp
	call	__RTC_CheckEsp
	mov	esp, ebp
	pop	ebp
	ret	0
?finish@@YAXXZ ENDP					; finish
_TEXT	ENDS
PUBLIC	??_C@_0BA@NJJABCMP@MySQL?9Erro?3?5?$CFs?6?$AA@	; `string'
PUBLIC	??$vsprintf_s@$0EAA@@@YAHAAY0EAA@DPBDPAD@Z	; vsprintf_s<1024>
PUBLIC	__$ArrayPad$
PUBLIC	?query@SimpleMysql@@QAAXPBDZZ			; SimpleMysql::query
EXTRN	__imp__printf:PROC
EXTRN	_mysql_error@4:PROC
EXTRN	_mysql_query@8:PROC
EXTRN	___security_cookie:DWORD
EXTRN	@__security_check_cookie@4:PROC
EXTRN	@_RTC_CheckStackVars@8:PROC
;	COMDAT ??_C@_0BA@NJJABCMP@MySQL?9Erro?3?5?$CFs?6?$AA@
; File l:\projetos\pluganet\assistencia remota pluganet\phlcserver\simplemysql.hpp
CONST	SEGMENT
??_C@_0BA@NJJABCMP@MySQL?9Erro?3?5?$CFs?6?$AA@ DB 'MySQL-Erro: %s', 0aH, 00H ; `string'
; Function compile flags: /Odtp /RTCsu /ZI
CONST	ENDS
;	COMDAT ?query@SimpleMysql@@QAAXPBDZZ
_TEXT	SEGMENT
_ap$ = -1044						; size = 4
_query$ = -1032						; size = 1024
__$ArrayPad$ = -4					; size = 4
_this$ = 8						; size = 4
_query_s$ = 12						; size = 4
?query@SimpleMysql@@QAAXPBDZZ PROC			; SimpleMysql::query, COMDAT
; Line 17
	push	ebp
	mov	ebp, esp
	sub	esp, 1240				; 000004d8H
	push	ebx
	push	esi
	push	edi
	lea	edi, DWORD PTR [ebp-1240]
	mov	ecx, 310				; 00000136H
	mov	eax, -858993460				; ccccccccH
	rep stosd
	mov	eax, DWORD PTR ___security_cookie
	xor	eax, ebp
	mov	DWORD PTR __$ArrayPad$[ebp], eax
; Line 20
	lea	eax, DWORD PTR _query_s$[ebp+4]
	mov	DWORD PTR _ap$[ebp], eax
; Line 21
	mov	eax, DWORD PTR _ap$[ebp]
	push	eax
	mov	ecx, DWORD PTR _query_s$[ebp]
	push	ecx
	lea	edx, DWORD PTR _query$[ebp]
	push	edx
	call	??$vsprintf_s@$0EAA@@@YAHAAY0EAA@DPBDPAD@Z ; vsprintf_s<1024>
	add	esp, 12					; 0000000cH
; Line 22
	mov	DWORD PTR _ap$[ebp], 0
; Line 23
	lea	eax, DWORD PTR _query$[ebp]
	push	eax
	mov	ecx, DWORD PTR _this$[ebp]
	mov	edx, DWORD PTR [ecx]
	push	edx
	call	_mysql_query@8
	test	eax, eax
	je	SHORT $LN2@query
; Line 24
	mov	eax, DWORD PTR _this$[ebp]
	mov	ecx, DWORD PTR [eax]
	push	ecx
	call	_mysql_error@4
	mov	esi, esp
	push	eax
	push	OFFSET ??_C@_0BA@NJJABCMP@MySQL?9Erro?3?5?$CFs?6?$AA@
	call	DWORD PTR __imp__printf
	add	esp, 8
	cmp	esi, esp
	call	__RTC_CheckEsp
; Line 25
	call	?finish@@YAXXZ				; finish
$LN2@query:
; Line 27
	push	edx
	mov	ecx, ebp
	push	eax
	lea	edx, DWORD PTR $LN6@query
	call	@_RTC_CheckStackVars@8
	pop	eax
	pop	edx
	pop	edi
	pop	esi
	pop	ebx
	mov	ecx, DWORD PTR __$ArrayPad$[ebp]
	xor	ecx, ebp
	call	@__security_check_cookie@4
	add	esp, 1240				; 000004d8H
	cmp	ebp, esp
	call	__RTC_CheckEsp
	mov	esp, ebp
	pop	ebp
	ret	0
	npad	2
$LN6@query:
	DD	1
	DD	$LN5@query
$LN5@query:
	DD	-1032					; fffffbf8H
	DD	1024					; 00000400H
	DD	$LN4@query
$LN4@query:
	DB	113					; 00000071H
	DB	117					; 00000075H
	DB	101					; 00000065H
	DB	114					; 00000072H
	DB	121					; 00000079H
	DB	0
?query@SimpleMysql@@QAAXPBDZZ ENDP			; SimpleMysql::query
_TEXT	ENDS
PUBLIC	??_C@_06OJHGLDPL@?$CInull?$CJ?$AA@		; `string'
PUBLIC	??_C@_00CNPNBAHC@?$AA@				; `string'
PUBLIC	__$ArrayPad$
PUBLIC	?query_multiresult@SimpleMysql@@QAA_NPADPBD1ZZ	; SimpleMysql::query_multiresult
EXTRN	_mysql_free_result@4:PROC
EXTRN	_strlen:PROC
EXTRN	_strcat:PROC
EXTRN	_mysql_num_fields@4:PROC
EXTRN	_mysql_fetch_lengths@4:PROC
EXTRN	_mysql_fetch_row@4:PROC
EXTRN	_strcpy:PROC
EXTRN	_mysql_use_result@4:PROC
;	COMDAT ??_C@_06OJHGLDPL@?$CInull?$CJ?$AA@
CONST	SEGMENT
??_C@_06OJHGLDPL@?$CInull?$CJ?$AA@ DB '(null)', 00H	; `string'
CONST	ENDS
;	COMDAT ??_C@_00CNPNBAHC@?$AA@
CONST	SEGMENT
??_C@_00CNPNBAHC@?$AA@ DB 00H				; `string'
; Function compile flags: /Odtp /RTCsu /ZI
CONST	ENDS
;	COMDAT ?query_multiresult@SimpleMysql@@QAA_NPADPBD1ZZ
_TEXT	SEGMENT
_i$86585 = -1116					; size = 4
_num_field$86583 = -1104				; size = 4
_returnvalue$ = -1089					; size = 1
_fetch_lenghts$ = -1080					; size = 4
_row$ = -1068						; size = 4
_res$ = -1056						; size = 4
_ap$ = -1044						; size = 4
_query$ = -1032						; size = 1024
__$ArrayPad$ = -4					; size = 4
_this$ = 8						; size = 4
_result$ = 12						; size = 4
_separator$ = 16					; size = 4
_query_s$ = 20						; size = 4
?query_multiresult@SimpleMysql@@QAA_NPADPBD1ZZ PROC	; SimpleMysql::query_multiresult, COMDAT
; Line 29
	push	ebp
	mov	ebp, esp
	sub	esp, 1312				; 00000520H
	push	ebx
	push	esi
	push	edi
	lea	edi, DWORD PTR [ebp-1312]
	mov	ecx, 328				; 00000148H
	mov	eax, -858993460				; ccccccccH
	rep stosd
	mov	eax, DWORD PTR ___security_cookie
	xor	eax, ebp
	mov	DWORD PTR __$ArrayPad$[ebp], eax
; Line 32
	lea	eax, DWORD PTR _query_s$[ebp+4]
	mov	DWORD PTR _ap$[ebp], eax
; Line 33
	mov	eax, DWORD PTR _ap$[ebp]
	push	eax
	mov	ecx, DWORD PTR _query_s$[ebp]
	push	ecx
	lea	edx, DWORD PTR _query$[ebp]
	push	edx
	call	??$vsprintf_s@$0EAA@@@YAHAAY0EAA@DPBDPAD@Z ; vsprintf_s<1024>
	add	esp, 12					; 0000000cH
; Line 34
	mov	DWORD PTR _ap$[ebp], 0
; Line 35
	lea	eax, DWORD PTR _query$[ebp]
	push	eax
	mov	ecx, DWORD PTR _this$[ebp]
	mov	edx, DWORD PTR [ecx]
	push	edx
	call	_mysql_query@8
	test	eax, eax
	je	SHORT $LN9@query_mult
; Line 36
	mov	eax, DWORD PTR _this$[ebp]
	mov	ecx, DWORD PTR [eax]
	push	ecx
	call	_mysql_error@4
	mov	esi, esp
	push	eax
	push	OFFSET ??_C@_0BA@NJJABCMP@MySQL?9Erro?3?5?$CFs?6?$AA@
	call	DWORD PTR __imp__printf
	add	esp, 8
	cmp	esi, esp
	call	__RTC_CheckEsp
; Line 37
	call	?finish@@YAXXZ				; finish
$LN9@query_mult:
; Line 39
	mov	eax, DWORD PTR _this$[ebp]
	mov	ecx, DWORD PTR [eax]
	push	ecx
	call	_mysql_use_result@4
	mov	DWORD PTR _res$[ebp], eax
; Line 42
	push	OFFSET ??_C@_00CNPNBAHC@?$AA@
	mov	eax, DWORD PTR _result$[ebp]
	push	eax
	call	_strcpy
	add	esp, 8
; Line 43
	mov	BYTE PTR _returnvalue$[ebp], 0
$LN8@query_mult:
; Line 44
	mov	eax, DWORD PTR _res$[ebp]
	push	eax
	call	_mysql_fetch_row@4
	mov	DWORD PTR _row$[ebp], eax
	cmp	DWORD PTR _row$[ebp], 0
	je	$LN7@query_mult
; Line 45
	mov	eax, DWORD PTR _res$[ebp]
	push	eax
	call	_mysql_fetch_lengths@4
	mov	DWORD PTR _fetch_lenghts$[ebp], eax
; Line 46
	mov	eax, DWORD PTR _res$[ebp]
	push	eax
	call	_mysql_num_fields@4
	mov	DWORD PTR _num_field$86583[ebp], eax
; Line 47
	cmp	DWORD PTR _num_field$86583[ebp], 1
	jl	$LN6@query_mult
; Line 48
	mov	DWORD PTR _i$86585[ebp], 0
	jmp	SHORT $LN5@query_mult
$LN4@query_mult:
	mov	eax, DWORD PTR _i$86585[ebp]
	add	eax, 1
	mov	DWORD PTR _i$86585[ebp], eax
$LN5@query_mult:
	mov	eax, DWORD PTR _i$86585[ebp]
	cmp	eax, DWORD PTR _num_field$86583[ebp]
	jge	SHORT $LN3@query_mult
; Line 49
	mov	eax, DWORD PTR _i$86585[ebp]
	mov	ecx, DWORD PTR _row$[ebp]
	cmp	DWORD PTR [ecx+eax*4], 0
	jne	SHORT $LN2@query_mult
; Line 50
	push	OFFSET ??_C@_06OJHGLDPL@?$CInull?$CJ?$AA@
	mov	eax, DWORD PTR _result$[ebp]
	push	eax
	call	_strcat
	add	esp, 8
; Line 51
	jmp	SHORT $LN1@query_mult
$LN2@query_mult:
; Line 52
	mov	eax, DWORD PTR _i$86585[ebp]
	mov	ecx, DWORD PTR _row$[ebp]
	mov	edx, DWORD PTR [ecx+eax*4]
	push	edx
	mov	eax, DWORD PTR _result$[ebp]
	push	eax
	call	_strcat
	add	esp, 8
$LN1@query_mult:
; Line 53
	mov	eax, DWORD PTR _separator$[ebp]
	push	eax
	mov	ecx, DWORD PTR _result$[ebp]
	push	ecx
	call	_strcat
	add	esp, 8
; Line 54
	jmp	SHORT $LN4@query_mult
$LN3@query_mult:
; Line 55
	mov	eax, DWORD PTR _result$[ebp]
	push	eax
	call	_strlen
	add	esp, 4
	mov	esi, eax
	mov	ecx, DWORD PTR _separator$[ebp]
	push	ecx
	call	_strlen
	add	esp, 4
	sub	esi, eax
	mov	edx, DWORD PTR _result$[ebp]
	mov	BYTE PTR [edx+esi], 0
; Line 56
	mov	BYTE PTR _returnvalue$[ebp], 1
$LN6@query_mult:
; Line 58
	jmp	$LN8@query_mult
$LN7@query_mult:
; Line 59
	mov	eax, DWORD PTR _res$[ebp]
	push	eax
	call	_mysql_free_result@4
; Line 60
	mov	al, BYTE PTR _returnvalue$[ebp]
; Line 61
	push	edx
	mov	ecx, ebp
	push	eax
	lea	edx, DWORD PTR $LN14@query_mult
	call	@_RTC_CheckStackVars@8
	pop	eax
	pop	edx
	pop	edi
	pop	esi
	pop	ebx
	mov	ecx, DWORD PTR __$ArrayPad$[ebp]
	xor	ecx, ebp
	call	@__security_check_cookie@4
	add	esp, 1312				; 00000520H
	cmp	ebp, esp
	call	__RTC_CheckEsp
	mov	esp, ebp
	pop	ebp
	ret	0
$LN14@query_mult:
	DD	1
	DD	$LN13@query_mult
$LN13@query_mult:
	DD	-1032					; fffffbf8H
	DD	1024					; 00000400H
	DD	$LN12@query_mult
$LN12@query_mult:
	DB	113					; 00000071H
	DB	117					; 00000075H
	DB	101					; 00000065H
	DB	114					; 00000072H
	DB	121					; 00000079H
	DB	0
?query_multiresult@SimpleMysql@@QAA_NPADPBD1ZZ ENDP	; SimpleMysql::query_multiresult
_TEXT	ENDS
PUBLIC	__$ArrayPad$
PUBLIC	?query_result@SimpleMysql@@QAA_NPADPBDZZ	; SimpleMysql::query_result
EXTRN	__imp__strncpy:PROC
; Function compile flags: /Odtp /RTCsu /ZI
;	COMDAT ?query_result@SimpleMysql@@QAA_NPADPBDZZ
_TEXT	SEGMENT
_fetch_lenghts$ = -1092					; size = 4
_returnval$ = -1077					; size = 1
_row$ = -1068						; size = 4
_res$ = -1056						; size = 4
_ap$ = -1044						; size = 4
_query$ = -1032						; size = 1024
__$ArrayPad$ = -4					; size = 4
_this$ = 8						; size = 4
_result$ = 12						; size = 4
_query_s$ = 16						; size = 4
?query_result@SimpleMysql@@QAA_NPADPBDZZ PROC		; SimpleMysql::query_result, COMDAT
; Line 63
	push	ebp
	mov	ebp, esp
	sub	esp, 1288				; 00000508H
	push	ebx
	push	esi
	push	edi
	lea	edi, DWORD PTR [ebp-1288]
	mov	ecx, 322				; 00000142H
	mov	eax, -858993460				; ccccccccH
	rep stosd
	mov	eax, DWORD PTR ___security_cookie
	xor	eax, ebp
	mov	DWORD PTR __$ArrayPad$[ebp], eax
; Line 66
	lea	eax, DWORD PTR _query_s$[ebp+4]
	mov	DWORD PTR _ap$[ebp], eax
; Line 67
	mov	eax, DWORD PTR _ap$[ebp]
	push	eax
	mov	ecx, DWORD PTR _query_s$[ebp]
	push	ecx
	lea	edx, DWORD PTR _query$[ebp]
	push	edx
	call	??$vsprintf_s@$0EAA@@@YAHAAY0EAA@DPBDPAD@Z ; vsprintf_s<1024>
	add	esp, 12					; 0000000cH
; Line 68
	mov	DWORD PTR _ap$[ebp], 0
; Line 69
	lea	eax, DWORD PTR _query$[ebp]
	push	eax
	mov	ecx, DWORD PTR _this$[ebp]
	mov	edx, DWORD PTR [ecx]
	push	edx
	call	_mysql_query@8
	test	eax, eax
	je	SHORT $LN3@query_resu
; Line 70
	mov	eax, DWORD PTR _this$[ebp]
	mov	ecx, DWORD PTR [eax]
	push	ecx
	call	_mysql_error@4
	mov	esi, esp
	push	eax
	push	OFFSET ??_C@_0BA@NJJABCMP@MySQL?9Erro?3?5?$CFs?6?$AA@
	call	DWORD PTR __imp__printf
	add	esp, 8
	cmp	esi, esp
	call	__RTC_CheckEsp
; Line 71
	call	?finish@@YAXXZ				; finish
$LN3@query_resu:
; Line 73
	mov	eax, DWORD PTR _this$[ebp]
	mov	ecx, DWORD PTR [eax]
	push	ecx
	call	_mysql_use_result@4
	mov	DWORD PTR _res$[ebp], eax
; Line 75
	mov	BYTE PTR _returnval$[ebp], 0
$LN2@query_resu:
; Line 77
	mov	eax, DWORD PTR _res$[ebp]
	push	eax
	call	_mysql_fetch_row@4
	mov	DWORD PTR _row$[ebp], eax
	cmp	DWORD PTR _row$[ebp], 0
	je	SHORT $LN1@query_resu
; Line 78
	mov	eax, DWORD PTR _res$[ebp]
	push	eax
	call	_mysql_fetch_lengths@4
	mov	DWORD PTR _fetch_lenghts$[ebp], eax
; Line 79
	mov	eax, DWORD PTR _fetch_lenghts$[ebp]
	mov	ecx, DWORD PTR [eax]
	add	ecx, 1
	mov	esi, esp
	push	ecx
	mov	edx, DWORD PTR _row$[ebp]
	mov	eax, DWORD PTR [edx]
	push	eax
	mov	ecx, DWORD PTR _result$[ebp]
	push	ecx
	call	DWORD PTR __imp__strncpy
	add	esp, 12					; 0000000cH
	cmp	esi, esp
	call	__RTC_CheckEsp
; Line 80
	mov	BYTE PTR _returnval$[ebp], 1
; Line 81
	jmp	SHORT $LN1@query_resu
; Line 82
	jmp	SHORT $LN2@query_resu
$LN1@query_resu:
; Line 83
	mov	eax, DWORD PTR _res$[ebp]
	push	eax
	call	_mysql_free_result@4
; Line 84
	mov	al, BYTE PTR _returnval$[ebp]
; Line 85
	push	edx
	mov	ecx, ebp
	push	eax
	lea	edx, DWORD PTR $LN8@query_resu
	call	@_RTC_CheckStackVars@8
	pop	eax
	pop	edx
	pop	edi
	pop	esi
	pop	ebx
	mov	ecx, DWORD PTR __$ArrayPad$[ebp]
	xor	ecx, ebp
	call	@__security_check_cookie@4
	add	esp, 1288				; 00000508H
	cmp	ebp, esp
	call	__RTC_CheckEsp
	mov	esp, ebp
	pop	ebp
	ret	0
	npad	1
$LN8@query_resu:
	DD	1
	DD	$LN7@query_resu
$LN7@query_resu:
	DD	-1032					; fffffbf8H
	DD	1024					; 00000400H
	DD	$LN6@query_resu
$LN6@query_resu:
	DB	113					; 00000071H
	DB	117					; 00000075H
	DB	101					; 00000065H
	DB	114					; 00000072H
	DB	121					; 00000079H
	DB	0
?query_result@SimpleMysql@@QAA_NPADPBDZZ ENDP		; SimpleMysql::query_result
_TEXT	ENDS
PUBLIC	?init@SimpleMysql@@QAEXXZ			; SimpleMysql::init
EXTRN	_mysql_init@4:PROC
; Function compile flags: /Odtp /RTCsu /ZI
;	COMDAT ?init@SimpleMysql@@QAEXXZ
_TEXT	SEGMENT
_this$ = -8						; size = 4
?init@SimpleMysql@@QAEXXZ PROC				; SimpleMysql::init, COMDAT
; _this$ = ecx
; Line 87
	push	ebp
	mov	ebp, esp
	sub	esp, 204				; 000000ccH
	push	ebx
	push	esi
	push	edi
	push	ecx
	lea	edi, DWORD PTR [ebp-204]
	mov	ecx, 51					; 00000033H
	mov	eax, -858993460				; ccccccccH
	rep stosd
	pop	ecx
	mov	DWORD PTR _this$[ebp], ecx
; Line 88
	mov	eax, DWORD PTR _this$[ebp]
	mov	ecx, DWORD PTR [eax]
	push	ecx
	call	_mysql_init@4
	mov	edx, DWORD PTR _this$[ebp]
	mov	DWORD PTR [edx], eax
; Line 89
	pop	edi
	pop	esi
	pop	ebx
	add	esp, 204				; 000000ccH
	cmp	ebp, esp
	call	__RTC_CheckEsp
	mov	esp, ebp
	pop	ebp
	ret	0
?init@SimpleMysql@@QAEXXZ ENDP				; SimpleMysql::init
_TEXT	ENDS
PUBLIC	?close@SimpleMysql@@QAEXXZ			; SimpleMysql::close
EXTRN	_mysql_close@4:PROC
; Function compile flags: /Odtp /RTCsu /ZI
;	COMDAT ?close@SimpleMysql@@QAEXXZ
_TEXT	SEGMENT
_this$ = -8						; size = 4
?close@SimpleMysql@@QAEXXZ PROC				; SimpleMysql::close, COMDAT
; _this$ = ecx
; Line 91
	push	ebp
	mov	ebp, esp
	sub	esp, 204				; 000000ccH
	push	ebx
	push	esi
	push	edi
	push	ecx
	lea	edi, DWORD PTR [ebp-204]
	mov	ecx, 51					; 00000033H
	mov	eax, -858993460				; ccccccccH
	rep stosd
	pop	ecx
	mov	DWORD PTR _this$[ebp], ecx
; Line 92
	mov	eax, DWORD PTR _this$[ebp]
	mov	ecx, DWORD PTR [eax]
	push	ecx
	call	_mysql_close@4
; Line 93
	pop	edi
	pop	esi
	pop	ebx
	add	esp, 204				; 000000ccH
	cmp	ebp, esp
	call	__RTC_CheckEsp
	mov	esp, ebp
	pop	ebp
	ret	0
?close@SimpleMysql@@QAEXXZ ENDP				; SimpleMysql::close
_TEXT	ENDS
PUBLIC	?connect@SimpleMysql@@QAEXPAD000H@Z		; SimpleMysql::connect
EXTRN	_mysql_real_connect@32:PROC
; Function compile flags: /Odtp /RTCsu /ZI
;	COMDAT ?connect@SimpleMysql@@QAEXPAD000H@Z
_TEXT	SEGMENT
_this$ = -8						; size = 4
_addr_s$ = 8						; size = 4
_user_s$ = 12						; size = 4
_pass_s$ = 16						; size = 4
_database_s$ = 20					; size = 4
_port_i$ = 24						; size = 4
?connect@SimpleMysql@@QAEXPAD000H@Z PROC		; SimpleMysql::connect, COMDAT
; _this$ = ecx
; Line 95
	push	ebp
	mov	ebp, esp
	sub	esp, 204				; 000000ccH
	push	ebx
	push	esi
	push	edi
	push	ecx
	lea	edi, DWORD PTR [ebp-204]
	mov	ecx, 51					; 00000033H
	mov	eax, -858993460				; ccccccccH
	rep stosd
	pop	ecx
	mov	DWORD PTR _this$[ebp], ecx
; Line 96
	push	0
	push	0
	mov	eax, DWORD PTR _port_i$[ebp]
	push	eax
	mov	ecx, DWORD PTR _database_s$[ebp]
	push	ecx
	mov	edx, DWORD PTR _pass_s$[ebp]
	push	edx
	mov	eax, DWORD PTR _user_s$[ebp]
	push	eax
	mov	ecx, DWORD PTR _addr_s$[ebp]
	push	ecx
	mov	edx, DWORD PTR _this$[ebp]
	mov	eax, DWORD PTR [edx]
	push	eax
	call	_mysql_real_connect@32
	test	eax, eax
	jne	SHORT $LN2@connect
; Line 97
	mov	eax, DWORD PTR _this$[ebp]
	mov	ecx, DWORD PTR [eax]
	push	ecx
	call	_mysql_error@4
	mov	esi, esp
	push	eax
	push	OFFSET ??_C@_0BA@NJJABCMP@MySQL?9Erro?3?5?$CFs?6?$AA@
	call	DWORD PTR __imp__printf
	add	esp, 8
	cmp	esi, esp
	call	__RTC_CheckEsp
; Line 98
	call	?finish@@YAXXZ				; finish
$LN2@connect:
; Line 101
	pop	edi
	pop	esi
	pop	ebx
	add	esp, 204				; 000000ccH
	cmp	ebp, esp
	call	__RTC_CheckEsp
	mov	esp, ebp
	pop	ebp
	ret	20					; 00000014H
?connect@SimpleMysql@@QAEXPAD000H@Z ENDP		; SimpleMysql::connect
_TEXT	ENDS
PUBLIC	?logoff@Client@@AAEXXZ				; Client::logoff
PUBLIC	?connect@Client@@QAEXHI@Z			; Client::connect
; Function compile flags: /Odtp /RTCsu /ZI
;	COMDAT ?connect@Client@@QAEXHI@Z
_TEXT	SEGMENT
_this$ = -8						; size = 4
_niCid$ = 8						; size = 4
_nhSockt$ = 12						; size = 4
?connect@Client@@QAEXHI@Z PROC				; Client::connect, COMDAT
; _this$ = ecx
; File l:\projetos\pluganet\assistencia remota pluganet\phlcserver\client.cpp
; Line 27
	push	ebp
	mov	ebp, esp
	sub	esp, 204				; 000000ccH
	push	ebx
	push	esi
	push	edi
	push	ecx
	lea	edi, DWORD PTR [ebp-204]
	mov	ecx, 51					; 00000033H
	mov	eax, -858993460				; ccccccccH
	rep stosd
	pop	ecx
	mov	DWORD PTR _this$[ebp], ecx
; Line 28
	mov	eax, DWORD PTR _this$[ebp]
	mov	ecx, DWORD PTR _niCid$[ebp]
	mov	DWORD PTR [eax], ecx
; Line 29
	mov	eax, DWORD PTR _this$[ebp]
	mov	DWORD PTR [eax+4], -1
; Line 30
	mov	eax, DWORD PTR _this$[ebp]
	mov	ecx, DWORD PTR _nhSockt$[ebp]
	mov	DWORD PTR [eax+20], ecx
; Line 31
	mov	eax, DWORD PTR _this$[ebp]
	mov	BYTE PTR [eax+53], 1
; Line 32
	mov	ecx, DWORD PTR _this$[ebp]
	call	?logoff@Client@@AAEXXZ			; Client::logoff
; Line 33
	pop	edi
	pop	esi
	pop	ebx
	add	esp, 204				; 000000ccH
	cmp	ebp, esp
	call	__RTC_CheckEsp
	mov	esp, ebp
	pop	ebp
	ret	8
?connect@Client@@QAEXHI@Z ENDP				; Client::connect
_TEXT	ENDS
PUBLIC	?addrupdate@Client@@QAEXXZ			; Client::addrupdate
EXTRN	_inet_ntoa@4:PROC
; Function compile flags: /Odtp /RTCsu /ZI
;	COMDAT ?addrupdate@Client@@QAEXXZ
_TEXT	SEGMENT
_this$ = -8						; size = 4
?addrupdate@Client@@QAEXXZ PROC				; Client::addrupdate, COMDAT
; _this$ = ecx
; Line 35
	push	ebp
	mov	ebp, esp
	sub	esp, 204				; 000000ccH
	push	ebx
	push	esi
	push	edi
	push	ecx
	lea	edi, DWORD PTR [ebp-204]
	mov	ecx, 51					; 00000033H
	mov	eax, -858993460				; ccccccccH
	rep stosd
	pop	ecx
	mov	DWORD PTR _this$[ebp], ecx
; Line 36
	mov	eax, DWORD PTR _this$[ebp]
	movzx	ecx, BYTE PTR [eax+53]
	cmp	ecx, 1
	je	SHORT $LN1@addrupdate
	jmp	SHORT $LN2@addrupdate
$LN1@addrupdate:
; Line 38
	mov	eax, DWORD PTR _this$[ebp]
	mov	ecx, DWORD PTR [eax+36]
	push	ecx
	call	_inet_ntoa@4
	mov	edx, DWORD PTR _this$[ebp]
	mov	DWORD PTR [edx+48], eax
$LN2@addrupdate:
; Line 42
	pop	edi
	pop	esi
	pop	ebx
	add	esp, 204				; 000000ccH
	cmp	ebp, esp
	call	__RTC_CheckEsp
	mov	esp, ebp
	pop	ebp
	ret	0
?addrupdate@Client@@QAEXXZ ENDP				; Client::addrupdate
_TEXT	ENDS
PUBLIC	?disconect@Client@@QAEXXZ			; Client::disconect
EXTRN	_closesocket@4:PROC
; Function compile flags: /Odtp /RTCsu /ZI
;	COMDAT ?disconect@Client@@QAEXXZ
_TEXT	SEGMENT
_this$ = -8						; size = 4
?disconect@Client@@QAEXXZ PROC				; Client::disconect, COMDAT
; _this$ = ecx
; Line 44
	push	ebp
	mov	ebp, esp
	sub	esp, 204				; 000000ccH
	push	ebx
	push	esi
	push	edi
	push	ecx
	lea	edi, DWORD PTR [ebp-204]
	mov	ecx, 51					; 00000033H
	mov	eax, -858993460				; ccccccccH
	rep stosd
	pop	ecx
	mov	DWORD PTR _this$[ebp], ecx
; Line 45
	mov	eax, DWORD PTR _this$[ebp]
	movzx	ecx, BYTE PTR [eax+53]
	cmp	ecx, 1
	jne	SHORT $LN2@disconect
; Line 46
	mov	eax, DWORD PTR _this$[ebp]
	mov	BYTE PTR [eax+53], 0
; Line 47
	mov	eax, DWORD PTR _this$[ebp]
	mov	ecx, DWORD PTR [eax+20]
	push	ecx
	call	_closesocket@4
$LN2@disconect:
; Line 49
	pop	edi
	pop	esi
	pop	ebx
	add	esp, 204				; 000000ccH
	cmp	ebp, esp
	call	__RTC_CheckEsp
	mov	esp, ebp
	pop	ebp
	ret	0
?disconect@Client@@QAEXXZ ENDP				; Client::disconect
_TEXT	ENDS
PUBLIC	??_C@_0CA@GGNFMFKC@Cliente?5IP?5?$CFs?5logou?5como?5?$CC?$CFs?$CC?4?6?$AA@ ; `string'
PUBLIC	??_C@_0L@HBIHOECD@l?$AB?$CFi?$AB?$CFi?$AB?$CFi?$AA@ ; `string'
PUBLIC	??$strcpy_s@$0CB@@@YAHAAY0CB@DPBD@Z		; strcpy_s<33>
PUBLIC	??_C@_0CO@PFEGAHPG@SELECT?5tickets?5FROM?5users?5WHERE?5@ ; `string'
PUBLIC	??_C@_0CL@MCGFBIKB@SELECT?5type?5FROM?5users?5WHERE?5log@ ; `string'
PUBLIC	??_C@_0DB@OGMNBMCE@SELECT?5login_id?5FROM?5users?5WHERE@ ; `string'
PUBLIC	?debug_printf@@YAXPADZZ				; debug_printf
PUBLIC	??_C@_0DL@EMAMAJCE@Cliente?5IP?5?$CFs?5tentou?5logar?5como?5@ ; `string'
PUBLIC	?sendmsg@Client@@QAAXPADZZ			; Client::sendmsg
PUBLIC	??_C@_03IOKDFIIA@l?$AB?9?$AA@			; `string'
PUBLIC	??_C@_0DD@HAPCNBDI@SELECT?5login_pass?5FROM?5users?5WHE@ ; `string'
PUBLIC	__$ArrayPad$
PUBLIC	?login@Client@@AAEXPAD0@Z			; Client::login
EXTRN	__imp__atoi:PROC
EXTRN	_strcmp:PROC
;	COMDAT ??_C@_0CA@GGNFMFKC@Cliente?5IP?5?$CFs?5logou?5como?5?$CC?$CFs?$CC?4?6?$AA@
CONST	SEGMENT
??_C@_0CA@GGNFMFKC@Cliente?5IP?5?$CFs?5logou?5como?5?$CC?$CFs?$CC?4?6?$AA@ DB 'C'
	DB	'liente IP %s logou como "%s".', 0aH, 00H	; `string'
CONST	ENDS
;	COMDAT ??_C@_0L@HBIHOECD@l?$AB?$CFi?$AB?$CFi?$AB?$CFi?$AA@
CONST	SEGMENT
??_C@_0L@HBIHOECD@l?$AB?$CFi?$AB?$CFi?$AB?$CFi?$AA@ DB 'l', 01H, '%i', 01H
	DB	'%i', 01H, '%i', 00H				; `string'
CONST	ENDS
;	COMDAT ??_C@_0CO@PFEGAHPG@SELECT?5tickets?5FROM?5users?5WHERE?5@
CONST	SEGMENT
??_C@_0CO@PFEGAHPG@SELECT?5tickets?5FROM?5users?5WHERE?5@ DB 'SELECT tick'
	DB	'ets FROM users WHERE login_id="%i"', 00H	; `string'
CONST	ENDS
;	COMDAT ??_C@_0CL@MCGFBIKB@SELECT?5type?5FROM?5users?5WHERE?5log@
CONST	SEGMENT
??_C@_0CL@MCGFBIKB@SELECT?5type?5FROM?5users?5WHERE?5log@ DB 'SELECT type'
	DB	' FROM users WHERE login_id="%i"', 00H	; `string'
CONST	ENDS
;	COMDAT ??_C@_0DB@OGMNBMCE@SELECT?5login_id?5FROM?5users?5WHERE@
CONST	SEGMENT
??_C@_0DB@OGMNBMCE@SELECT?5login_id?5FROM?5users?5WHERE@ DB 'SELECT login'
	DB	'_id FROM users WHERE login_name="%s"', 00H	; `string'
CONST	ENDS
;	COMDAT ??_C@_0DL@EMAMAJCE@Cliente?5IP?5?$CFs?5tentou?5logar?5como?5@
CONST	SEGMENT
??_C@_0DL@EMAMAJCE@Cliente?5IP?5?$CFs?5tentou?5logar?5como?5@ DB 'Cliente'
	DB	' IP %s tentou logar como "%s" usando a senha "%s".', 0aH, 00H ; `string'
CONST	ENDS
;	COMDAT ??_C@_03IOKDFIIA@l?$AB?9?$AA@
CONST	SEGMENT
??_C@_03IOKDFIIA@l?$AB?9?$AA@ DB 'l', 01H, '-', 00H	; `string'
CONST	ENDS
;	COMDAT ??_C@_0DD@HAPCNBDI@SELECT?5login_pass?5FROM?5users?5WHE@
CONST	SEGMENT
??_C@_0DD@HAPCNBDI@SELECT?5login_pass?5FROM?5users?5WHE@ DB 'SELECT login'
	DB	'_pass FROM users WHERE login_name="%s"', 00H ; `string'
; Function compile flags: /Odtp /RTCsu /ZI
CONST	ENDS
;	COMDAT ?login@Client@@AAEXPAD0@Z
_TEXT	SEGMENT
_stickets$86697 = -116					; size = 11
_type$86695 = -96					; size = 2
_lid$86693 = -84					; size = 5
_exist$ = -65						; size = 1
_upass$ = -56						; size = 33
_this$ = -12						; size = 4
__$ArrayPad$ = -4					; size = 4
_tusername$ = 8						; size = 4
_tpassword$ = 12					; size = 4
?login@Client@@AAEXPAD0@Z PROC				; Client::login, COMDAT
; _this$ = ecx
; Line 60
	push	ebp
	mov	ebp, esp
	sub	esp, 312				; 00000138H
	push	ebx
	push	esi
	push	edi
	push	ecx
	lea	edi, DWORD PTR [ebp-312]
	mov	ecx, 78					; 0000004eH
	mov	eax, -858993460				; ccccccccH
	rep stosd
	pop	ecx
	mov	eax, DWORD PTR ___security_cookie
	xor	eax, ebp
	mov	DWORD PTR __$ArrayPad$[ebp], eax
	mov	DWORD PTR _this$[ebp], ecx
; Line 62
	mov	eax, DWORD PTR _tusername$[ebp]
	push	eax
	push	OFFSET ??_C@_0DD@HAPCNBDI@SELECT?5login_pass?5FROM?5users?5WHE@
	lea	ecx, DWORD PTR _upass$[ebp]
	push	ecx
	push	OFFSET ?smysql@@3VSimpleMysql@@A	; smysql
	call	?query_result@SimpleMysql@@QAA_NPADPBDZZ ; SimpleMysql::query_result
	add	esp, 16					; 00000010H
	mov	BYTE PTR _exist$[ebp], al
; Line 63
	movzx	eax, BYTE PTR _exist$[ebp]
	test	eax, eax
	jne	SHORT $LN5@login
; Line 64
	push	0
	push	OFFSET ??_C@_03IOKDFIIA@l?$AB?9?$AA@
	mov	eax, DWORD PTR _this$[ebp]
	push	eax
	call	?sendmsg@Client@@QAAXPADZZ		; Client::sendmsg
	add	esp, 12					; 0000000cH
; Line 65
	mov	eax, DWORD PTR _tpassword$[ebp]
	push	eax
	mov	ecx, DWORD PTR _tusername$[ebp]
	push	ecx
	mov	edx, DWORD PTR _this$[ebp]
	mov	eax, DWORD PTR [edx+48]
	push	eax
	push	OFFSET ??_C@_0DL@EMAMAJCE@Cliente?5IP?5?$CFs?5tentou?5logar?5como?5@
	call	?debug_printf@@YAXPADZZ			; debug_printf
	add	esp, 16					; 00000010H
	jmp	$LN6@login
$LN5@login:
; Line 66
	mov	eax, DWORD PTR _tpassword$[ebp]
	push	eax
	lea	ecx, DWORD PTR _upass$[ebp]
	push	ecx
	call	_strcmp
	add	esp, 8
	test	eax, eax
	je	SHORT $LN3@login
; Line 67
	push	0
	push	OFFSET ??_C@_03IOKDFIIA@l?$AB?9?$AA@
	mov	eax, DWORD PTR _this$[ebp]
	push	eax
	call	?sendmsg@Client@@QAAXPADZZ		; Client::sendmsg
	add	esp, 12					; 0000000cH
; Line 68
	mov	eax, DWORD PTR _tpassword$[ebp]
	push	eax
	mov	ecx, DWORD PTR _tusername$[ebp]
	push	ecx
	mov	edx, DWORD PTR _this$[ebp]
	mov	eax, DWORD PTR [edx+48]
	push	eax
	push	OFFSET ??_C@_0DL@EMAMAJCE@Cliente?5IP?5?$CFs?5tentou?5logar?5como?5@
	call	?debug_printf@@YAXPADZZ			; debug_printf
	add	esp, 16					; 00000010H
; Line 69
	jmp	$LN6@login
; Line 70
	jmp	$LN6@login
$LN3@login:
; Line 72
	mov	eax, DWORD PTR _tusername$[ebp]
	push	eax
	push	OFFSET ??_C@_0DB@OGMNBMCE@SELECT?5login_id?5FROM?5users?5WHERE@
	lea	ecx, DWORD PTR _lid$86693[ebp]
	push	ecx
	push	OFFSET ?smysql@@3VSimpleMysql@@A	; smysql
	call	?query_result@SimpleMysql@@QAA_NPADPBDZZ ; SimpleMysql::query_result
	add	esp, 16					; 00000010H
; Line 73
	mov	esi, esp
	lea	eax, DWORD PTR _lid$86693[ebp]
	push	eax
	call	DWORD PTR __imp__atoi
	add	esp, 4
	cmp	esi, esp
	call	__RTC_CheckEsp
	mov	ecx, DWORD PTR _this$[ebp]
	mov	DWORD PTR [ecx+4], eax
; Line 75
	mov	eax, DWORD PTR _this$[ebp]
	mov	ecx, DWORD PTR [eax+4]
	push	ecx
	push	OFFSET ??_C@_0CL@MCGFBIKB@SELECT?5type?5FROM?5users?5WHERE?5log@
	lea	edx, DWORD PTR _type$86695[ebp]
	push	edx
	push	OFFSET ?smysql@@3VSimpleMysql@@A	; smysql
	call	?query_result@SimpleMysql@@QAA_NPADPBDZZ ; SimpleMysql::query_result
	add	esp, 16					; 00000010H
; Line 76
	mov	esi, esp
	lea	eax, DWORD PTR _type$86695[ebp]
	push	eax
	call	DWORD PTR __imp__atoi
	add	esp, 4
	cmp	esi, esp
	call	__RTC_CheckEsp
	mov	ecx, DWORD PTR _this$[ebp]
	mov	DWORD PTR [ecx+8], eax
; Line 78
	mov	eax, DWORD PTR _this$[ebp]
	mov	ecx, DWORD PTR [eax+4]
	push	ecx
	push	OFFSET ??_C@_0CO@PFEGAHPG@SELECT?5tickets?5FROM?5users?5WHERE?5@
	lea	edx, DWORD PTR _stickets$86697[ebp]
	push	edx
	push	OFFSET ?smysql@@3VSimpleMysql@@A	; smysql
	call	?query_result@SimpleMysql@@QAA_NPADPBDZZ ; SimpleMysql::query_result
	add	esp, 16					; 00000010H
; Line 79
	mov	esi, esp
	lea	eax, DWORD PTR _stickets$86697[ebp]
	push	eax
	call	DWORD PTR __imp__atoi
	add	esp, 4
	cmp	esi, esp
	call	__RTC_CheckEsp
	mov	ecx, DWORD PTR _this$[ebp]
	mov	DWORD PTR [ecx+16], eax
; Line 80
	mov	eax, DWORD PTR _tusername$[ebp]
	push	eax
	mov	ecx, DWORD PTR _this$[ebp]
	add	ecx, 55					; 00000037H
	push	ecx
	call	??$strcpy_s@$0CB@@@YAHAAY0CB@DPBD@Z	; strcpy_s<33>
	add	esp, 8
; Line 81
	mov	eax, DWORD PTR _this$[ebp]
	mov	BYTE PTR [eax+52], 1
; Line 82
	mov	eax, DWORD PTR _this$[ebp]
	mov	ecx, DWORD PTR [eax+16]
	push	ecx
	mov	edx, DWORD PTR _this$[ebp]
	mov	eax, DWORD PTR [edx+8]
	push	eax
	mov	ecx, DWORD PTR _this$[ebp]
	mov	edx, DWORD PTR [ecx+4]
	push	edx
	push	OFFSET ??_C@_0L@HBIHOECD@l?$AB?$CFi?$AB?$CFi?$AB?$CFi?$AA@
	mov	eax, DWORD PTR _this$[ebp]
	push	eax
	call	?sendmsg@Client@@QAAXPADZZ		; Client::sendmsg
	add	esp, 20					; 00000014H
; Line 83
	mov	eax, DWORD PTR _tusername$[ebp]
	push	eax
	mov	ecx, DWORD PTR _this$[ebp]
	mov	edx, DWORD PTR [ecx+48]
	push	edx
	push	OFFSET ??_C@_0CA@GGNFMFKC@Cliente?5IP?5?$CFs?5logou?5como?5?$CC?$CFs?$CC?4?6?$AA@
	call	?debug_printf@@YAXPADZZ			; debug_printf
	add	esp, 12					; 0000000cH
; Line 84
	mov	eax, DWORD PTR _this$[ebp]
	xor	ecx, ecx
	cmp	DWORD PTR [eax+16], 1
	setl	cl
	mov	edx, DWORD PTR _this$[ebp]
	xor	eax, eax
	cmp	DWORD PTR [edx+8], 8
	setl	al
	and	ecx, eax
	je	SHORT $LN6@login
; Line 85
	mov	eax, DWORD PTR _this$[ebp]
	mov	BYTE PTR [eax+54], 1
$LN6@login:
; Line 87
	push	edx
	mov	ecx, ebp
	push	eax
	lea	edx, DWORD PTR $LN13@login
	call	@_RTC_CheckStackVars@8
	pop	eax
	pop	edx
	pop	edi
	pop	esi
	pop	ebx
	mov	ecx, DWORD PTR __$ArrayPad$[ebp]
	xor	ecx, ebp
	call	@__security_check_cookie@4
	add	esp, 312				; 00000138H
	cmp	ebp, esp
	call	__RTC_CheckEsp
	mov	esp, ebp
	pop	ebp
	ret	8
	npad	1
$LN13@login:
	DD	4
	DD	$LN12@login
$LN12@login:
	DD	-56					; ffffffc8H
	DD	33					; 00000021H
	DD	$LN8@login
	DD	-84					; ffffffacH
	DD	5
	DD	$LN9@login
	DD	-96					; ffffffa0H
	DD	2
	DD	$LN10@login
	DD	-116					; ffffff8cH
	DD	11					; 0000000bH
	DD	$LN11@login
$LN11@login:
	DB	115					; 00000073H
	DB	116					; 00000074H
	DB	105					; 00000069H
	DB	99					; 00000063H
	DB	107					; 0000006bH
	DB	101					; 00000065H
	DB	116					; 00000074H
	DB	115					; 00000073H
	DB	0
$LN10@login:
	DB	116					; 00000074H
	DB	121					; 00000079H
	DB	112					; 00000070H
	DB	101					; 00000065H
	DB	0
$LN9@login:
	DB	108					; 0000006cH
	DB	105					; 00000069H
	DB	100					; 00000064H
	DB	0
$LN8@login:
	DB	117					; 00000075H
	DB	112					; 00000070H
	DB	97					; 00000061H
	DB	115					; 00000073H
	DB	115					; 00000073H
	DB	0
?login@Client@@AAEXPAD0@Z ENDP				; Client::login
_TEXT	ENDS
PUBLIC	??_C@_01EEMJAFIK@?6?$AA@			; `string'
PUBLIC	??$vsprintf_s@$0BAA@@@YAHAAY0BAA@DPBDPAD@Z	; vsprintf_s<256>
PUBLIC	__$ArrayPad$
EXTRN	_send@16:PROC
;	COMDAT ??_C@_01EEMJAFIK@?6?$AA@
CONST	SEGMENT
??_C@_01EEMJAFIK@?6?$AA@ DB 0aH, 00H			; `string'
; Function compile flags: /Odtp /RTCsu /ZI
CONST	ENDS
;	COMDAT ?sendmsg@Client@@QAAXPADZZ
_TEXT	SEGMENT
_ap$ = -276						; size = 4
_msg$ = -264						; size = 256
__$ArrayPad$ = -4					; size = 4
_this$ = 8						; size = 4
_msgformat$ = 12					; size = 4
?sendmsg@Client@@QAAXPADZZ PROC				; Client::sendmsg, COMDAT
; Line 89
	push	ebp
	mov	ebp, esp
	sub	esp, 472				; 000001d8H
	push	ebx
	push	esi
	push	edi
	lea	edi, DWORD PTR [ebp-472]
	mov	ecx, 118				; 00000076H
	mov	eax, -858993460				; ccccccccH
	rep stosd
	mov	eax, DWORD PTR ___security_cookie
	xor	eax, ebp
	mov	DWORD PTR __$ArrayPad$[ebp], eax
; Line 92
	lea	eax, DWORD PTR _msgformat$[ebp+4]
	mov	DWORD PTR _ap$[ebp], eax
; Line 93
	mov	eax, DWORD PTR _ap$[ebp]
	push	eax
	mov	ecx, DWORD PTR _msgformat$[ebp]
	push	ecx
	lea	edx, DWORD PTR _msg$[ebp]
	push	edx
	call	??$vsprintf_s@$0BAA@@@YAHAAY0BAA@DPBDPAD@Z ; vsprintf_s<256>
	add	esp, 12					; 0000000cH
; Line 94
	push	OFFSET ??_C@_01EEMJAFIK@?6?$AA@
	lea	eax, DWORD PTR _msg$[ebp]
	push	eax
	call	_strcat
	add	esp, 8
; Line 95
	mov	DWORD PTR _ap$[ebp], 0
; Line 96
	push	0
	lea	eax, DWORD PTR _msg$[ebp]
	push	eax
	call	_strlen
	add	esp, 4
	push	eax
	lea	ecx, DWORD PTR _msg$[ebp]
	push	ecx
	mov	edx, DWORD PTR _this$[ebp]
	mov	eax, DWORD PTR [edx+20]
	push	eax
	call	_send@16
; Line 97
	push	edx
	mov	ecx, ebp
	push	eax
	lea	edx, DWORD PTR $LN5@sendmsg
	call	@_RTC_CheckStackVars@8
	pop	eax
	pop	edx
	pop	edi
	pop	esi
	pop	ebx
	mov	ecx, DWORD PTR __$ArrayPad$[ebp]
	xor	ecx, ebp
	call	@__security_check_cookie@4
	add	esp, 472				; 000001d8H
	cmp	ebp, esp
	call	__RTC_CheckEsp
	mov	esp, ebp
	pop	ebp
	ret	0
	npad	3
$LN5@sendmsg:
	DD	1
	DD	$LN4@sendmsg
$LN4@sendmsg:
	DD	-264					; fffffef8H
	DD	256					; 00000100H
	DD	$LN3@sendmsg
$LN3@sendmsg:
	DB	109					; 0000006dH
	DB	115					; 00000073H
	DB	103					; 00000067H
	DB	0
?sendmsg@Client@@QAAXPADZZ ENDP				; Client::sendmsg
; Function compile flags: /Odtp /RTCsu /ZI
_TEXT	ENDS
;	COMDAT ?logoff@Client@@AAEXXZ
_TEXT	SEGMENT
_this$ = -8						; size = 4
?logoff@Client@@AAEXXZ PROC				; Client::logoff, COMDAT
; _this$ = ecx
; Line 99
	push	ebp
	mov	ebp, esp
	sub	esp, 204				; 000000ccH
	push	ebx
	push	esi
	push	edi
	push	ecx
	lea	edi, DWORD PTR [ebp-204]
	mov	ecx, 51					; 00000033H
	mov	eax, -858993460				; ccccccccH
	rep stosd
	pop	ecx
	mov	DWORD PTR _this$[ebp], ecx
; Line 100
	mov	eax, DWORD PTR _this$[ebp]
	mov	DWORD PTR [eax+4], 0
; Line 101
	mov	eax, DWORD PTR _this$[ebp]
	mov	DWORD PTR [eax+8], 0
; Line 102
	mov	eax, DWORD PTR _this$[ebp]
	mov	DWORD PTR [eax+16], 0
; Line 103
	pop	edi
	pop	esi
	pop	ebx
	mov	esp, ebp
	pop	ebp
	ret	0
?logoff@Client@@AAEXXZ ENDP				; Client::logoff
_TEXT	ENDS
PUBLIC	??_C@_0N@POAOMFCN@l?$AB?$CF?$FL?$FO?8?$AB?8?$FN?$AB?$CFs?$AA@ ; `string'
PUBLIC	??_C@_01KJLJFBPL@8?$AA@				; `string'
PUBLIC	??_C@_0N@HBKAGBBG@?$CFs?5Pobret?co?6?$AA@	; `string'
PUBLIC	__$ArrayPad$
PUBLIC	?received@Client@@QAEXPAD@Z			; Client::received
EXTRN	__imp__sscanf:PROC
;	COMDAT ??_C@_0N@POAOMFCN@l?$AB?$CF?$FL?$FO?8?$AB?8?$FN?$AB?$CFs?$AA@
CONST	SEGMENT
??_C@_0N@POAOMFCN@l?$AB?$CF?$FL?$FO?8?$AB?8?$FN?$AB?$CFs?$AA@ DB 'l', 01H
	DB	'%[^''', 01H, ''']', 01H, '%s', 00H		; `string'
CONST	ENDS
;	COMDAT ??_C@_01KJLJFBPL@8?$AA@
CONST	SEGMENT
??_C@_01KJLJFBPL@8?$AA@ DB '8', 00H			; `string'
CONST	ENDS
;	COMDAT ??_C@_0N@HBKAGBBG@?$CFs?5Pobret?co?6?$AA@
CONST	SEGMENT
??_C@_0N@HBKAGBBG@?$CFs?5Pobret?co?6?$AA@ DB '%s Pobret', 0e3H, 'o', 0aH, 00H ; `string'
; Function compile flags: /Odtp /RTCsu /ZI
CONST	ENDS
;	COMDAT ?received@Client@@QAEXPAD@Z
_TEXT	SEGMENT
tv72 = -300						; size = 4
_tpassword$86745 = -100					; size = 33
_tusername$86744 = -56					; size = 33
_this$ = -12						; size = 4
__$ArrayPad$ = -4					; size = 4
_packet$ = 8						; size = 4
?received@Client@@QAEXPAD@Z PROC			; Client::received, COMDAT
; _this$ = ecx
; Line 105
	push	ebp
	mov	ebp, esp
	sub	esp, 300				; 0000012cH
	push	ebx
	push	esi
	push	edi
	push	ecx
	lea	edi, DWORD PTR [ebp-300]
	mov	ecx, 75					; 0000004bH
	mov	eax, -858993460				; ccccccccH
	rep stosd
	pop	ecx
	mov	eax, DWORD PTR ___security_cookie
	xor	eax, ebp
	mov	DWORD PTR __$ArrayPad$[ebp], eax
	mov	DWORD PTR _this$[ebp], ecx
; Line 106
	mov	eax, DWORD PTR _this$[ebp]
	movzx	ecx, BYTE PTR [eax+54]
	test	ecx, ecx
	je	SHORT $LN9@received
; Line 107
	mov	eax, DWORD PTR _this$[ebp]
	mov	ecx, DWORD PTR [eax+48]
	push	ecx
	push	OFFSET ??_C@_0N@HBKAGBBG@?$CFs?5Pobret?co?6?$AA@
	call	?debug_printf@@YAXPADZZ			; debug_printf
	add	esp, 8
; Line 108
	mov	ecx, DWORD PTR _this$[ebp]
	call	?disconect@Client@@QAEXXZ		; Client::disconect
$LN9@received:
; Line 110
	mov	eax, DWORD PTR _packet$[ebp]
	mov	cl, BYTE PTR [eax]
	mov	BYTE PTR tv72[ebp], cl
	cmp	BYTE PTR tv72[ebp], 56			; 00000038H
	je	SHORT $LN5@received
	cmp	BYTE PTR tv72[ebp], 68			; 00000044H
	je	SHORT $LN6@received
	cmp	BYTE PTR tv72[ebp], 108			; 0000006cH
	je	SHORT $LN4@received
	jmp	SHORT $LN10@received
$LN6@received:
; Line 112
	mov	ecx, DWORD PTR _this$[ebp]
	call	?disconect@Client@@QAEXXZ		; Client::disconect
; Line 113
	jmp	SHORT $LN10@received
$LN5@received:
; Line 115
	push	OFFSET ??_C@_01KJLJFBPL@8?$AA@
	mov	eax, DWORD PTR _this$[ebp]
	push	eax
	call	?sendmsg@Client@@QAAXPADZZ		; Client::sendmsg
	add	esp, 8
; Line 116
	jmp	SHORT $LN10@received
$LN4@received:
; Line 118
	mov	eax, DWORD PTR _packet$[ebp]
	movsx	ecx, BYTE PTR [eax+3]
	cmp	ecx, 35					; 00000023H
	jne	SHORT $LN3@received
	mov	ecx, DWORD PTR _this$[ebp]
	call	?logoff@Client@@AAEXXZ			; Client::logoff
; Line 119
	jmp	SHORT $LN10@received
$LN3@received:
; Line 121
	mov	esi, esp
	lea	eax, DWORD PTR _tpassword$86745[ebp]
	push	eax
	lea	ecx, DWORD PTR _tusername$86744[ebp]
	push	ecx
	push	OFFSET ??_C@_0N@POAOMFCN@l?$AB?$CF?$FL?$FO?8?$AB?8?$FN?$AB?$CFs?$AA@
	mov	edx, DWORD PTR _packet$[ebp]
	push	edx
	call	DWORD PTR __imp__sscanf
	add	esp, 16					; 00000010H
	cmp	esi, esp
	call	__RTC_CheckEsp
; Line 122
	lea	eax, DWORD PTR _tpassword$86745[ebp]
	push	eax
	lea	ecx, DWORD PTR _tusername$86744[ebp]
	push	ecx
	mov	ecx, DWORD PTR _this$[ebp]
	call	?login@Client@@AAEXPAD0@Z		; Client::login
$LN10@received:
; Line 129
	push	edx
	mov	ecx, ebp
	push	eax
	lea	edx, DWORD PTR $LN15@received
	call	@_RTC_CheckStackVars@8
	pop	eax
	pop	edx
	pop	edi
	pop	esi
	pop	ebx
	mov	ecx, DWORD PTR __$ArrayPad$[ebp]
	xor	ecx, ebp
	call	@__security_check_cookie@4
	add	esp, 300				; 0000012cH
	cmp	ebp, esp
	call	__RTC_CheckEsp
	mov	esp, ebp
	pop	ebp
	ret	4
	npad	1
$LN15@received:
	DD	2
	DD	$LN14@received
$LN14@received:
	DD	-56					; ffffffc8H
	DD	33					; 00000021H
	DD	$LN12@received
	DD	-100					; ffffff9cH
	DD	33					; 00000021H
	DD	$LN13@received
$LN13@received:
	DB	116					; 00000074H
	DB	112					; 00000070H
	DB	97					; 00000061H
	DB	115					; 00000073H
	DB	115					; 00000073H
	DB	119					; 00000077H
	DB	111					; 0000006fH
	DB	114					; 00000072H
	DB	100					; 00000064H
	DB	0
$LN12@received:
	DB	116					; 00000074H
	DB	117					; 00000075H
	DB	115					; 00000073H
	DB	101					; 00000065H
	DB	114					; 00000072H
	DB	110					; 0000006eH
	DB	97					; 00000061H
	DB	109					; 0000006dH
	DB	101					; 00000065H
	DB	0
?received@Client@@QAEXPAD@Z ENDP			; Client::received
_TEXT	ENDS
EXTRN	__imp__vprintf:PROC
EXTRN	__imp__vfprintf:PROC
; Function compile flags: /Odtp /RTCsu /ZI
;	COMDAT ?debug_printf@@YAXPADZZ
_TEXT	SEGMENT
_ap$ = -8						; size = 4
_format$ = 8						; size = 4
?debug_printf@@YAXPADZZ PROC				; debug_printf, COMDAT
; File l:\projetos\pluganet\assistencia remota pluganet\phlcserver\phlcserver.cpp
; Line 51
	push	ebp
	mov	ebp, esp
	sub	esp, 204				; 000000ccH
	push	ebx
	push	esi
	push	edi
	lea	edi, DWORD PTR [ebp-204]
	mov	ecx, 51					; 00000033H
	mov	eax, -858993460				; ccccccccH
	rep stosd
; Line 53
	lea	eax, DWORD PTR _format$[ebp+4]
	mov	DWORD PTR _ap$[ebp], eax
; Line 54
	mov	esi, esp
	mov	eax, DWORD PTR _ap$[ebp]
	push	eax
	mov	ecx, DWORD PTR _format$[ebp]
	push	ecx
	mov	edx, DWORD PTR ?pDebugFile@@3PAU_iobuf@@A ; pDebugFile
	push	edx
	call	DWORD PTR __imp__vfprintf
	add	esp, 12					; 0000000cH
	cmp	esi, esp
	call	__RTC_CheckEsp
; Line 55
	movzx	eax, BYTE PTR ?printdebug@@3_NA		; printdebug
	cmp	eax, 1
	jne	SHORT $LN1@debug_prin
	mov	esi, esp
	mov	eax, DWORD PTR _ap$[ebp]
	push	eax
	mov	ecx, DWORD PTR _format$[ebp]
	push	ecx
	call	DWORD PTR __imp__vprintf
	add	esp, 8
	cmp	esi, esp
	call	__RTC_CheckEsp
$LN1@debug_prin:
; Line 56
	mov	DWORD PTR _ap$[ebp], 0
; Line 57
	pop	edi
	pop	esi
	pop	ebx
	add	esp, 204				; 000000ccH
	cmp	ebp, esp
	call	__RTC_CheckEsp
	mov	esp, ebp
	pop	ebp
	ret	0
?debug_printf@@YAXPADZZ ENDP				; debug_printf
_TEXT	ENDS
PUBLIC	__$ArrayPad$
PUBLIC	?sendall@@YAXHPADZZ				; sendall
EXTRN	__imp__vsprintf:PROC
; Function compile flags: /Odtp /RTCsu /ZI
;	COMDAT ?sendall@@YAXHPADZZ
_TEXT	SEGMENT
_iCid$86771 = -288					; size = 4
_ap$ = -276						; size = 4
_msgbuffer$ = -264					; size = 256
__$ArrayPad$ = -4					; size = 4
_ignorecid$ = 8						; size = 4
_msgformat$ = 12					; size = 4
?sendall@@YAXHPADZZ PROC				; sendall, COMDAT
; Line 59
	push	ebp
	mov	ebp, esp
	sub	esp, 484				; 000001e4H
	push	ebx
	push	esi
	push	edi
	lea	edi, DWORD PTR [ebp-484]
	mov	ecx, 121				; 00000079H
	mov	eax, -858993460				; ccccccccH
	rep stosd
	mov	eax, DWORD PTR ___security_cookie
	xor	eax, ebp
	mov	DWORD PTR __$ArrayPad$[ebp], eax
; Line 60
	cmp	DWORD PTR ?connect_id@@3HA, 1		; connect_id
	jg	SHORT $LN5@sendall
; Line 61
	jmp	$LN6@sendall
$LN5@sendall:
; Line 64
	lea	eax, DWORD PTR _msgformat$[ebp+4]
	mov	DWORD PTR _ap$[ebp], eax
; Line 65
	mov	esi, esp
	mov	eax, DWORD PTR _ap$[ebp]
	push	eax
	mov	ecx, DWORD PTR _msgformat$[ebp]
	push	ecx
	lea	edx, DWORD PTR _msgbuffer$[ebp]
	push	edx
	call	DWORD PTR __imp__vsprintf
	add	esp, 12					; 0000000cH
	cmp	esi, esp
	call	__RTC_CheckEsp
; Line 66
	mov	DWORD PTR _ap$[ebp], 0
; Line 67
	mov	DWORD PTR _iCid$86771[ebp], 0
	jmp	SHORT $LN4@sendall
$LN3@sendall:
	mov	eax, DWORD PTR _iCid$86771[ebp]
	add	eax, 1
	mov	DWORD PTR _iCid$86771[ebp], eax
$LN4@sendall:
	mov	eax, DWORD PTR _iCid$86771[ebp]
	cmp	eax, DWORD PTR ?connect_id@@3HA		; connect_id
	jge	SHORT $LN6@sendall
; Line 68
	mov	eax, DWORD PTR _iCid$86771[ebp]
	cmp	eax, DWORD PTR _ignorecid$[ebp]
	je	SHORT $LN1@sendall
; Line 69
	lea	eax, DWORD PTR _msgbuffer$[ebp]
	push	eax
	mov	ecx, DWORD PTR _iCid$86771[ebp]
	imul	ecx, 88					; 00000058H
	add	ecx, DWORD PTR ?client_list@@3PAVClient@@A ; client_list
	push	ecx
	call	?sendmsg@Client@@QAAXPADZZ		; Client::sendmsg
	add	esp, 8
$LN1@sendall:
; Line 70
	jmp	SHORT $LN3@sendall
$LN6@sendall:
	push	edx
	mov	ecx, ebp
	push	eax
	lea	edx, DWORD PTR $LN10@sendall
	call	@_RTC_CheckStackVars@8
	pop	eax
	pop	edx
	pop	edi
	pop	esi
	pop	ebx
	mov	ecx, DWORD PTR __$ArrayPad$[ebp]
	xor	ecx, ebp
	call	@__security_check_cookie@4
	add	esp, 484				; 000001e4H
	cmp	ebp, esp
	call	__RTC_CheckEsp
	mov	esp, ebp
	pop	ebp
	ret	0
	npad	3
$LN10@sendall:
	DD	1
	DD	$LN9@sendall
$LN9@sendall:
	DD	-264					; fffffef8H
	DD	256					; 00000100H
	DD	$LN8@sendall
$LN8@sendall:
	DB	109					; 0000006dH
	DB	115					; 00000073H
	DB	103					; 00000067H
	DB	98					; 00000062H
	DB	117					; 00000075H
	DB	102					; 00000066H
	DB	102					; 00000066H
	DB	101					; 00000065H
	DB	114					; 00000072H
	DB	0
?sendall@@YAXHPADZZ ENDP				; sendall
_TEXT	ENDS
PUBLIC	??_C@_0CP@CLAPJJBL@Conexao?5finalizada?5por?5script?3?5I@ ; `string'
PUBLIC	??_C@_0DF@KNDBEFCI@Cliente?5?$CFs?1?$CFi?5enviou?5mensagem?3?6?$CF@ ; `string'
PUBLIC	??_C@_05PCAHBOJM@?$CFs?6?$CFs?$AA@		; `string'
PUBLIC	??_C@_0CG@NFJONBEF@Cliente?5?$CFs?1?$CFi?5desconectado?5por?5e@ ; `string'
PUBLIC	??_C@_0BP@OHEIGJGH@Cliente?5?$CFs?1?$CFi?5fechou?5conexao?4?6?$AA@ ; `string'
PUBLIC	??_C@_0BG@NHKJCJMK@Novo?5cliente?3?5?$CFs?1?$CFi?4?6?$AA@ ; `string'
PUBLIC	__$ArrayPad$
PUBLIC	?clientloop@@YAXH@Z				; clientloop
EXTRN	_recv@16:PROC
;	COMDAT ??_C@_0CP@CLAPJJBL@Conexao?5finalizada?5por?5script?3?5I@
CONST	SEGMENT
??_C@_0CP@CLAPJJBL@Conexao?5finalizada?5por?5script?3?5I@ DB 'Conexao fin'
	DB	'alizada por script: IP %s - ID %i.', 0aH, 00H ; `string'
CONST	ENDS
;	COMDAT ??_C@_0DF@KNDBEFCI@Cliente?5?$CFs?1?$CFi?5enviou?5mensagem?3?6?$CF@
CONST	SEGMENT
??_C@_0DF@KNDBEFCI@Cliente?5?$CFs?1?$CFi?5enviou?5mensagem?3?6?$CF@ DB 'C'
	DB	'liente %s/%i enviou mensagem:', 0aH, '%s', 0aH, '*Fim da mens'
	DB	'agem.', 0aH, 00H				; `string'
CONST	ENDS
;	COMDAT ??_C@_05PCAHBOJM@?$CFs?6?$CFs?$AA@
CONST	SEGMENT
??_C@_05PCAHBOJM@?$CFs?6?$CFs?$AA@ DB '%s', 0aH, '%s', 00H ; `string'
CONST	ENDS
;	COMDAT ??_C@_0CG@NFJONBEF@Cliente?5?$CFs?1?$CFi?5desconectado?5por?5e@
CONST	SEGMENT
??_C@_0CG@NFJONBEF@Cliente?5?$CFs?1?$CFi?5desconectado?5por?5e@ DB 'Clien'
	DB	'te %s/%i desconectado por erro.', 0aH, 00H	; `string'
CONST	ENDS
;	COMDAT ??_C@_0BP@OHEIGJGH@Cliente?5?$CFs?1?$CFi?5fechou?5conexao?4?6?$AA@
CONST	SEGMENT
??_C@_0BP@OHEIGJGH@Cliente?5?$CFs?1?$CFi?5fechou?5conexao?4?6?$AA@ DB 'Cl'
	DB	'iente %s/%i fechou conexao.', 0aH, 00H	; `string'
CONST	ENDS
;	COMDAT ??_C@_0BG@NHKJCJMK@Novo?5cliente?3?5?$CFs?1?$CFi?4?6?$AA@
CONST	SEGMENT
??_C@_0BG@NHKJCJMK@Novo?5cliente?3?5?$CFs?1?$CFi?4?6?$AA@ DB 'Novo client'
	DB	'e: %s/%i.', 0aH, 00H			; `string'
; Function compile flags: /Odtp /RTCsu /ZI
CONST	ENDS
;	COMDAT ?clientloop@@YAXH@Z
_TEXT	SEGMENT
_recvr$ = -648						; size = 4
_trunk$ = -633						; size = 1
_cuttedmsg$ = -624					; size = 256
_msgbuffer$ = -360					; size = 256
_client$ = -96						; size = 88
__$ArrayPad$ = -4					; size = 4
_iCid$ = 8						; size = 4
?clientloop@@YAXH@Z PROC				; clientloop, COMDAT
; Line 72
	push	ebp
	mov	ebp, esp
	sub	esp, 844				; 0000034cH
	push	ebx
	push	esi
	push	edi
	lea	edi, DWORD PTR [ebp-844]
	mov	ecx, 211				; 000000d3H
	mov	eax, -858993460				; ccccccccH
	rep stosd
	mov	eax, DWORD PTR ___security_cookie
	xor	eax, ebp
	mov	DWORD PTR __$ArrayPad$[ebp], eax
; Line 73
	mov	esi, DWORD PTR _iCid$[ebp]
	imul	esi, 88					; 00000058H
	add	esi, DWORD PTR ?client_list@@3PAVClient@@A ; client_list
	mov	ecx, 22					; 00000016H
	lea	edi, DWORD PTR _client$[ebp]
	rep movsd
; Line 76
	mov	eax, DWORD PTR _iCid$[ebp]
	push	eax
	mov	ecx, DWORD PTR _client$[ebp+48]
	push	ecx
	push	OFFSET ??_C@_0BG@NHKJCJMK@Novo?5cliente?3?5?$CFs?1?$CFi?4?6?$AA@
	call	?debug_printf@@YAXPADZZ			; debug_printf
	add	esp, 12					; 0000000cH
$LN7@clientloop:
; Line 77
	movzx	eax, BYTE PTR _client$[ebp+53]
	sub	eax, 1
	neg	eax
	sbb	eax, eax
	add	eax, 1
	movzx	ecx, BYTE PTR ?exit_cmd@@3_NA		; exit_cmd
	neg	ecx
	sbb	ecx, ecx
	add	ecx, 1
	and	eax, ecx
	je	$LN6@clientloop
; Line 78
	push	0
	push	256					; 00000100H
	lea	eax, DWORD PTR _msgbuffer$[ebp]
	push	eax
	mov	ecx, DWORD PTR _client$[ebp+20]
	push	ecx
	call	_recv@16
	mov	DWORD PTR _recvr$[ebp], eax
; Line 79
	movzx	eax, BYTE PTR _client$[ebp+53]
	cmp	eax, 1
	jne	$LN5@clientloop
; Line 80
	cmp	DWORD PTR _recvr$[ebp], 0
	jne	SHORT $LN4@clientloop
; Line 81
	mov	eax, DWORD PTR _iCid$[ebp]
	push	eax
	mov	ecx, DWORD PTR _client$[ebp+48]
	push	ecx
	push	OFFSET ??_C@_0BP@OHEIGJGH@Cliente?5?$CFs?1?$CFi?5fechou?5conexao?4?6?$AA@
	call	?debug_printf@@YAXPADZZ			; debug_printf
	add	esp, 12					; 0000000cH
; Line 82
	lea	ecx, DWORD PTR _client$[ebp]
	call	?disconect@Client@@QAEXXZ		; Client::disconect
; Line 83
	jmp	$LN8@clientloop
	jmp	$LN5@clientloop
$LN4@clientloop:
; Line 84
	cmp	DWORD PTR _recvr$[ebp], -1
	jne	SHORT $LN2@clientloop
; Line 85
	mov	eax, DWORD PTR _iCid$[ebp]
	push	eax
	mov	ecx, DWORD PTR _client$[ebp+48]
	push	ecx
	push	OFFSET ??_C@_0CG@NFJONBEF@Cliente?5?$CFs?1?$CFi?5desconectado?5por?5e@
	call	?debug_printf@@YAXPADZZ			; debug_printf
	add	esp, 12					; 0000000cH
; Line 86
	lea	ecx, DWORD PTR _client$[ebp]
	call	?disconect@Client@@QAEXXZ		; Client::disconect
; Line 87
	jmp	SHORT $LN8@clientloop
; Line 88
	jmp	SHORT $LN5@clientloop
$LN2@clientloop:
; Line 89
	mov	esi, esp
	lea	eax, DWORD PTR _trunk$[ebp]
	push	eax
	lea	ecx, DWORD PTR _cuttedmsg$[ebp]
	push	ecx
	push	OFFSET ??_C@_05PCAHBOJM@?$CFs?6?$CFs?$AA@
	lea	edx, DWORD PTR _msgbuffer$[ebp]
	push	edx
	call	DWORD PTR __imp__sscanf
	add	esp, 16					; 00000010H
	cmp	esi, esp
	call	__RTC_CheckEsp
; Line 90
	lea	eax, DWORD PTR _cuttedmsg$[ebp]
	push	eax
	mov	ecx, DWORD PTR _iCid$[ebp]
	push	ecx
	mov	edx, DWORD PTR _client$[ebp+48]
	push	edx
	push	OFFSET ??_C@_0DF@KNDBEFCI@Cliente?5?$CFs?1?$CFi?5enviou?5mensagem?3?6?$CF@
	call	?debug_printf@@YAXPADZZ			; debug_printf
	add	esp, 16					; 00000010H
; Line 91
	lea	eax, DWORD PTR _cuttedmsg$[ebp]
	push	eax
	lea	ecx, DWORD PTR _client$[ebp]
	call	?received@Client@@QAEXPAD@Z		; Client::received
$LN5@clientloop:
; Line 94
	jmp	$LN7@clientloop
$LN6@clientloop:
; Line 95
	mov	eax, DWORD PTR _iCid$[ebp]
	push	eax
	mov	ecx, DWORD PTR _client$[ebp+48]
	push	ecx
	push	OFFSET ??_C@_0CP@CLAPJJBL@Conexao?5finalizada?5por?5script?3?5I@
	call	?debug_printf@@YAXPADZZ			; debug_printf
	add	esp, 12					; 0000000cH
$LN8@clientloop:
; Line 97
	push	edx
	mov	ecx, ebp
	push	eax
	lea	edx, DWORD PTR $LN15@clientloop
	call	@_RTC_CheckStackVars@8
	pop	eax
	pop	edx
	pop	edi
	pop	esi
	pop	ebx
	mov	ecx, DWORD PTR __$ArrayPad$[ebp]
	xor	ecx, ebp
	call	@__security_check_cookie@4
	add	esp, 844				; 0000034cH
	cmp	ebp, esp
	call	__RTC_CheckEsp
	mov	esp, ebp
	pop	ebp
	ret	0
	npad	1
$LN15@clientloop:
	DD	4
	DD	$LN14@clientloop
$LN14@clientloop:
	DD	-96					; ffffffa0H
	DD	88					; 00000058H
	DD	$LN10@clientloop
	DD	-360					; fffffe98H
	DD	256					; 00000100H
	DD	$LN11@clientloop
	DD	-624					; fffffd90H
	DD	256					; 00000100H
	DD	$LN12@clientloop
	DD	-633					; fffffd87H
	DD	1
	DD	$LN13@clientloop
$LN13@clientloop:
	DB	116					; 00000074H
	DB	114					; 00000072H
	DB	117					; 00000075H
	DB	110					; 0000006eH
	DB	107					; 0000006bH
	DB	0
$LN12@clientloop:
	DB	99					; 00000063H
	DB	117					; 00000075H
	DB	116					; 00000074H
	DB	116					; 00000074H
	DB	101					; 00000065H
	DB	100					; 00000064H
	DB	109					; 0000006dH
	DB	115					; 00000073H
	DB	103					; 00000067H
	DB	0
$LN11@clientloop:
	DB	109					; 0000006dH
	DB	115					; 00000073H
	DB	103					; 00000067H
	DB	98					; 00000062H
	DB	117					; 00000075H
	DB	102					; 00000066H
	DB	102					; 00000066H
	DB	101					; 00000065H
	DB	114					; 00000072H
	DB	0
$LN10@clientloop:
	DB	99					; 00000063H
	DB	108					; 0000006cH
	DB	105					; 00000069H
	DB	101					; 00000065H
	DB	110					; 0000006eH
	DB	116					; 00000074H
	DB	0
?clientloop@@YAXH@Z ENDP				; clientloop
_TEXT	ENDS
PUBLIC	??_C@_0DO@IIEBOJPL@Erro?3?5O?5servidor?5esta?5cheio?5e?5na@ ; `string'
PUBLIC	__$ArrayPad$
PUBLIC	?serverloop@@YAXXZ				; serverloop
EXTRN	__imp__CreateThread@24:PROC
EXTRN	_memcpy:PROC
EXTRN	_accept@12:PROC
;	COMDAT ??_C@_0DO@IIEBOJPL@Erro?3?5O?5servidor?5esta?5cheio?5e?5na@
CONST	SEGMENT
??_C@_0DO@IIEBOJPL@Erro?3?5O?5servidor?5esta?5cheio?5e?5na@ DB 'Erro: O s'
	DB	'ervidor esta cheio e nao ira aceitar mais usuarios!', 0aH, 00H ; `string'
; Function compile flags: /Odtp /RTCsu /ZI
CONST	ENDS
;	COMDAT ?serverloop@@YAXXZ
_TEXT	SEGMENT
_client_size$ = -36					; size = 4
_saClient$ = -24					; size = 16
__$ArrayPad$ = -4					; size = 4
?serverloop@@YAXXZ PROC					; serverloop, COMDAT
; Line 99
	push	ebp
	mov	ebp, esp
	sub	esp, 232				; 000000e8H
	push	ebx
	push	esi
	push	edi
	lea	edi, DWORD PTR [ebp-232]
	mov	ecx, 58					; 0000003aH
	mov	eax, -858993460				; ccccccccH
	rep stosd
	mov	eax, DWORD PTR ___security_cookie
	xor	eax, ebp
	mov	DWORD PTR __$ArrayPad$[ebp], eax
; Line 101
	mov	eax, 2
	mov	WORD PTR _saClient$[ebp], ax
; Line 102
	mov	DWORD PTR _client_size$[ebp], 16	; 00000010H
$LN4@serverloop:
; Line 103
	movzx	eax, BYTE PTR ?exit_cmd@@3_NA		; exit_cmd
	test	eax, eax
	jne	$LN5@serverloop
; Line 104
	lea	eax, DWORD PTR _client_size$[ebp]
	push	eax
	lea	ecx, DWORD PTR _saClient$[ebp]
	push	ecx
	mov	edx, DWORD PTR ?hSocket@@3IA		; hSocket
	push	edx
	call	_accept@12
	push	eax
	mov	eax, DWORD PTR ?connect_id@@3HA		; connect_id
	push	eax
	mov	ecx, DWORD PTR ?connect_id@@3HA		; connect_id
	imul	ecx, 88					; 00000058H
	add	ecx, DWORD PTR ?client_list@@3PAVClient@@A ; client_list
	call	?connect@Client@@QAEXHI@Z		; Client::connect
; Line 105
	movzx	eax, BYTE PTR ?exit_cmd@@3_NA		; exit_cmd
	cmp	eax, 1
	jne	SHORT $LN2@serverloop
	jmp	$LN5@serverloop
$LN2@serverloop:
; Line 106
	push	16					; 00000010H
	lea	eax, DWORD PTR _saClient$[ebp]
	push	eax
	mov	ecx, DWORD PTR ?connect_id@@3HA		; connect_id
	imul	ecx, 88					; 00000058H
	mov	edx, DWORD PTR ?client_list@@3PAVClient@@A ; client_list
	lea	eax, DWORD PTR [edx+ecx+32]
	push	eax
	call	_memcpy
	add	esp, 12					; 0000000cH
; Line 107
	mov	ecx, DWORD PTR ?connect_id@@3HA		; connect_id
	imul	ecx, 88					; 00000058H
	add	ecx, DWORD PTR ?client_list@@3PAVClient@@A ; client_list
	call	?addrupdate@Client@@QAEXXZ		; Client::addrupdate
; Line 108
	mov	eax, DWORD PTR ?connect_id@@3HA		; connect_id
	imul	eax, 88					; 00000058H
	mov	ecx, DWORD PTR ?client_list@@3PAVClient@@A ; client_list
	lea	edx, DWORD PTR [ecx+eax+28]
	mov	esi, esp
	push	edx
	push	0
	mov	eax, DWORD PTR ?connect_id@@3HA		; connect_id
	push	eax
	mov	ecx, DWORD PTR ?pCLientFunc@@3PAXA	; pCLientFunc
	push	ecx
	push	0
	push	0
	call	DWORD PTR __imp__CreateThread@24
	cmp	esi, esp
	call	__RTC_CheckEsp
	mov	edx, DWORD PTR ?connect_id@@3HA		; connect_id
	imul	edx, 88					; 00000058H
	mov	ecx, DWORD PTR ?client_list@@3PAVClient@@A ; client_list
	mov	DWORD PTR [ecx+edx+24], eax
; Line 109
	mov	eax, DWORD PTR ?connect_id@@3HA		; connect_id
	add	eax, 1
	mov	DWORD PTR ?connect_id@@3HA, eax		; connect_id
; Line 110
	mov	eax, DWORD PTR ?connect_id@@3HA		; connect_id
	cmp	eax, DWORD PTR ?host_maxuser@@3HA	; host_maxuser
	jle	SHORT $LN1@serverloop
; Line 111
	mov	esi, esp
	push	OFFSET ??_C@_0DO@IIEBOJPL@Erro?3?5O?5servidor?5esta?5cheio?5e?5na@
	call	DWORD PTR __imp__printf
	add	esp, 4
	cmp	esi, esp
	call	__RTC_CheckEsp
; Line 112
	jmp	SHORT $LN5@serverloop
$LN1@serverloop:
; Line 114
	jmp	$LN4@serverloop
$LN5@serverloop:
; Line 116
	push	edx
	mov	ecx, ebp
	push	eax
	lea	edx, DWORD PTR $LN10@serverloop
	call	@_RTC_CheckStackVars@8
	pop	eax
	pop	edx
	pop	edi
	pop	esi
	pop	ebx
	mov	ecx, DWORD PTR __$ArrayPad$[ebp]
	xor	ecx, ebp
	call	@__security_check_cookie@4
	add	esp, 232				; 000000e8H
	cmp	ebp, esp
	call	__RTC_CheckEsp
	mov	esp, ebp
	pop	ebp
	ret	0
$LN10@serverloop:
	DD	2
	DD	$LN9@serverloop
$LN9@serverloop:
	DD	-24					; ffffffe8H
	DD	16					; 00000010H
	DD	$LN7@serverloop
	DD	-36					; ffffffdcH
	DD	4
	DD	$LN8@serverloop
$LN8@serverloop:
	DB	99					; 00000063H
	DB	108					; 0000006cH
	DB	105					; 00000069H
	DB	101					; 00000065H
	DB	110					; 0000006eH
	DB	116					; 00000074H
	DB	95					; 0000005fH
	DB	115					; 00000073H
	DB	105					; 00000069H
	DB	122					; 0000007aH
	DB	101					; 00000065H
	DB	0
$LN7@serverloop:
	DB	115					; 00000073H
	DB	97					; 00000061H
	DB	67					; 00000043H
	DB	108					; 0000006cH
	DB	105					; 00000069H
	DB	101					; 00000065H
	DB	110					; 0000006eH
	DB	116					; 00000074H
	DB	0
?serverloop@@YAXXZ ENDP					; serverloop
_TEXT	ENDS
PUBLIC	??_C@_0DC@BJKIBHJF@Erro?3?5Nao?5foi?5possivel?5inciar?5a?5@ ; `string'
PUBLIC	??_C@_0DL@DMIOLLCN@Erro?3?5E?5necessario?5ter?5no?5minimo@ ; `string'
PUBLIC	??_C@_0DD@LDGFFKDJ@Todos?5os?5usarios?5foram?5desconect@ ; `string'
PUBLIC	??_C@_0CA@NNKBAGPG@Usuario?5?$CFi?5de?5?$CFi?5desconectado?$CB?6?$AA@ ; `string'
PUBLIC	??_C@_0BO@FJJILPNP@Desconectando?5os?5usuarios?4?4?4?6?$AA@ ; `string'
PUBLIC	??_C@_0CC@NDIIDJKG@Recepcao?5de?5usuarios?5finalizada?$CB@ ; `string'
PUBLIC	??_C@_0CF@INJEIDAA@Finalizando?5recepcao?5de?5usuarios@ ; `string'
PUBLIC	??_C@_0DP@NMPIKIHI@Conexao?5criada?5com?5sucesso?$CB?6Inic@ ; `string'
PUBLIC	??_C@_0BI@EKHGLDNK@Erro?3?5?8Listen?8?5falhou?4?6?$AA@ ; `string'
PUBLIC	??_C@_0CL@DPKDKBJD@Erro?3?5Nao?5foi?5possivel?5conectar?5@ ; `string'
PUBLIC	??_C@_03OMGOFJGM@ANY?$AA@			; `string'
PUBLIC	??_C@_0CK@PMAFGFED@Erro?3?5Nao?5foi?5possivel?5criar?5uma@ ; `string'
PUBLIC	??_C@_01GBGANLPD@0?$AA@				; `string'
PUBLIC	??_C@_01FDFGLJHB@2?$AA@				; `string'
PUBLIC	??_C@_0BK@ILFEIMHE@Criando?5conexao?5em?5?$CFs?3?$CFi?6?$AA@ ; `string'
PUBLIC	__$ArrayPad$
PUBLIC	?server_main@@YAXXZ				; server_main
EXTRN	__imp__GetExitCodeThread@8:PROC
EXTRN	__imp__TerminateThread@8:PROC
EXTRN	__imp__GetAsyncKeyState@4:PROC
EXTRN	_listen@8:PROC
EXTRN	_bind@12:PROC
EXTRN	_inet_addr@4:PROC
EXTRN	_htons@4:PROC
EXTRN	_socket@12:PROC
EXTRN	_WSAStartup@8:PROC
;	COMDAT ??_C@_0DC@BJKIBHJF@Erro?3?5Nao?5foi?5possivel?5inciar?5a?5@
CONST	SEGMENT
??_C@_0DC@BJKIBHJF@Erro?3?5Nao?5foi?5possivel?5inciar?5a?5@ DB 'Erro: Nao'
	DB	' foi possivel inciar a lybrary winsock.', 0aH, 00H ; `string'
CONST	ENDS
;	COMDAT ??_C@_0DL@DMIOLLCN@Erro?3?5E?5necessario?5ter?5no?5minimo@
CONST	SEGMENT
??_C@_0DL@DMIOLLCN@Erro?3?5E?5necessario?5ter?5no?5minimo@ DB 'Erro: E ne'
	DB	'cessario ter no minimo a versao 2.0 da winsock.', 0aH, 00H ; `string'
CONST	ENDS
;	COMDAT ??_C@_0DD@LDGFFKDJ@Todos?5os?5usarios?5foram?5desconect@
CONST	SEGMENT
??_C@_0DD@LDGFFKDJ@Todos?5os?5usarios?5foram?5desconect@ DB 'Todos os usa'
	DB	'rios foram desconectados com sucesso!', 0aH, 00H ; `string'
CONST	ENDS
;	COMDAT ??_C@_0CA@NNKBAGPG@Usuario?5?$CFi?5de?5?$CFi?5desconectado?$CB?6?$AA@
CONST	SEGMENT
??_C@_0CA@NNKBAGPG@Usuario?5?$CFi?5de?5?$CFi?5desconectado?$CB?6?$AA@ DB 'U'
	DB	'suario %i de %i desconectado!', 0aH, 00H	; `string'
CONST	ENDS
;	COMDAT ??_C@_0BO@FJJILPNP@Desconectando?5os?5usuarios?4?4?4?6?$AA@
CONST	SEGMENT
??_C@_0BO@FJJILPNP@Desconectando?5os?5usuarios?4?4?4?6?$AA@ DB 'Desconect'
	DB	'ando os usuarios...', 0aH, 00H		; `string'
CONST	ENDS
;	COMDAT ??_C@_0CC@NDIIDJKG@Recepcao?5de?5usuarios?5finalizada?$CB@
CONST	SEGMENT
??_C@_0CC@NDIIDJKG@Recepcao?5de?5usuarios?5finalizada?$CB@ DB 'Recepcao d'
	DB	'e usuarios finalizada!', 0aH, 00H		; `string'
CONST	ENDS
;	COMDAT ??_C@_0CF@INJEIDAA@Finalizando?5recepcao?5de?5usuarios@
CONST	SEGMENT
??_C@_0CF@INJEIDAA@Finalizando?5recepcao?5de?5usuarios@ DB 'Finalizando r'
	DB	'ecepcao de usuarios...', 0aH, 00H		; `string'
CONST	ENDS
;	COMDAT ??_C@_0DP@NMPIKIHI@Conexao?5criada?5com?5sucesso?$CB?6Inic@
CONST	SEGMENT
??_C@_0DP@NMPIKIHI@Conexao?5criada?5com?5sucesso?$CB?6Inic@ DB 'Conexao c'
	DB	'riada com sucesso!', 0aH, 'Iniciando recepcao de usuarios...', 0aH
	DB	00H						; `string'
CONST	ENDS
;	COMDAT ??_C@_0BI@EKHGLDNK@Erro?3?5?8Listen?8?5falhou?4?6?$AA@
CONST	SEGMENT
??_C@_0BI@EKHGLDNK@Erro?3?5?8Listen?8?5falhou?4?6?$AA@ DB 'Erro: ''Listen'
	DB	''' falhou.', 0aH, 00H			; `string'
CONST	ENDS
;	COMDAT ??_C@_0CL@DPKDKBJD@Erro?3?5Nao?5foi?5possivel?5conectar?5@
CONST	SEGMENT
??_C@_0CL@DPKDKBJD@Erro?3?5Nao?5foi?5possivel?5conectar?5@ DB 'Erro: Nao '
	DB	'foi possivel conectar a socket.', 0aH, 00H	; `string'
CONST	ENDS
;	COMDAT ??_C@_03OMGOFJGM@ANY?$AA@
CONST	SEGMENT
??_C@_03OMGOFJGM@ANY?$AA@ DB 'ANY', 00H			; `string'
CONST	ENDS
;	COMDAT ??_C@_0CK@PMAFGFED@Erro?3?5Nao?5foi?5possivel?5criar?5uma@
CONST	SEGMENT
??_C@_0CK@PMAFGFED@Erro?3?5Nao?5foi?5possivel?5criar?5uma@ DB 'Erro: Nao '
	DB	'foi possivel criar uma socket.', 0aH, 00H	; `string'
CONST	ENDS
;	COMDAT ??_C@_01GBGANLPD@0?$AA@
CONST	SEGMENT
??_C@_01GBGANLPD@0?$AA@ DB '0', 00H			; `string'
CONST	ENDS
;	COMDAT ??_C@_01FDFGLJHB@2?$AA@
CONST	SEGMENT
??_C@_01FDFGLJHB@2?$AA@ DB '2', 00H			; `string'
CONST	ENDS
;	COMDAT ??_C@_0BK@ILFEIMHE@Criando?5conexao?5em?5?$CFs?3?$CFi?6?$AA@
CONST	SEGMENT
??_C@_0BK@ILFEIMHE@Criando?5conexao?5em?5?$CFs?3?$CFi?6?$AA@ DB 'Criando '
	DB	'conexao em %s:%i', 0aH, 00H			; `string'
; Function compile flags: /Odtp /RTCsu /ZI
CONST	ENDS
;	COMDAT ?server_main@@YAXXZ
_TEXT	SEGMENT
_ci$86855 = -456					; size = 4
_lpExitCode$86852 = -444				; size = 4
_saSever$86834 = -432					; size = 16
_wsaData$ = -408					; size = 400
__$ArrayPad$ = -4					; size = 4
?server_main@@YAXXZ PROC				; server_main, COMDAT
; Line 118
	push	ebp
	mov	ebp, esp
	sub	esp, 652				; 0000028cH
	push	ebx
	push	esi
	push	edi
	lea	edi, DWORD PTR [ebp-652]
	mov	ecx, 163				; 000000a3H
	mov	eax, -858993460				; ccccccccH
	rep stosd
	mov	eax, DWORD PTR ___security_cookie
	xor	eax, ebp
	mov	DWORD PTR __$ArrayPad$[ebp], eax
; Line 119
	mov	esi, esp
	mov	eax, DWORD PTR ?host_port@@3HA		; host_port
	push	eax
	push	OFFSET ?host_addr@@3PADA		; host_addr
	push	OFFSET ??_C@_0BK@ILFEIMHE@Criando?5conexao?5em?5?$CFs?3?$CFi?6?$AA@
	call	DWORD PTR __imp__printf
	add	esp, 12					; 0000000cH
	cmp	esi, esp
	call	__RTC_CheckEsp
; Line 123
	lea	eax, DWORD PTR _wsaData$[ebp]
	push	eax
	mov	ecx, OFFSET ??_C@_01FDFGLJHB@2?$AA@
	and	ecx, 255				; 000000ffH
	movzx	edx, cl
	mov	eax, OFFSET ??_C@_01GBGANLPD@0?$AA@
	and	eax, 255				; 000000ffH
	movzx	ecx, al
	shl	ecx, 8
	or	edx, ecx
	push	edx
	call	_WSAStartup@8
	test	eax, eax
	jne	$LN22@server_mai
; Line 124
	movzx	eax, WORD PTR _wsaData$[ebp]
	and	eax, 255				; 000000ffH
	movzx	ecx, al
	cmp	ecx, 2
	jl	$LN21@server_mai
; Line 125
	cmp	DWORD PTR ?host_socktype@@3HA, 0	; host_socktype
	jne	SHORT $LN20@server_mai
; Line 126
	push	6
	push	1
	push	2
	call	_socket@12
	mov	DWORD PTR ?hSocket@@3IA, eax		; hSocket
	jmp	SHORT $LN19@server_mai
$LN20@server_mai:
; Line 127
	cmp	DWORD PTR ?host_socktype@@3HA, 1	; host_socktype
	jne	SHORT $LN19@server_mai
; Line 128
	push	17					; 00000011H
	push	2
	push	2
	call	_socket@12
	mov	DWORD PTR ?hSocket@@3IA, eax		; hSocket
$LN19@server_mai:
; Line 130
	cmp	DWORD PTR ?hSocket@@3IA, -1		; hSocket
	jne	SHORT $LN17@server_mai
; Line 131
	mov	esi, esp
	push	OFFSET ??_C@_0CK@PMAFGFED@Erro?3?5Nao?5foi?5possivel?5criar?5uma@
	call	DWORD PTR __imp__printf
	add	esp, 4
	cmp	esi, esp
	call	__RTC_CheckEsp
; Line 132
	jmp	$LN23@server_mai
; Line 133
	jmp	$LN16@server_mai
$LN17@server_mai:
; Line 135
	mov	eax, 2
	mov	WORD PTR _saSever$86834[ebp], ax
; Line 136
	movzx	eax, WORD PTR ?host_port@@3HA
	push	eax
	call	_htons@4
	mov	WORD PTR _saSever$86834[ebp+2], ax
; Line 137
	push	OFFSET ??_C@_03OMGOFJGM@ANY?$AA@
	push	OFFSET ?host_addr@@3PADA		; host_addr
	call	_strcmp
	add	esp, 8
	test	eax, eax
	je	SHORT $LN15@server_mai
; Line 139
	push	OFFSET ?host_addr@@3PADA		; host_addr
	call	_inet_addr@4
	mov	DWORD PTR _saSever$86834[ebp+4], eax
	jmp	SHORT $LN14@server_mai
$LN15@server_mai:
; Line 143
	mov	DWORD PTR _saSever$86834[ebp+4], 0
$LN14@server_mai:
; Line 145
	push	16					; 00000010H
	lea	eax, DWORD PTR _saSever$86834[ebp]
	push	eax
	mov	ecx, DWORD PTR ?hSocket@@3IA		; hSocket
	push	ecx
	call	_bind@12
	cmp	eax, -1
	jne	SHORT $LN13@server_mai
; Line 146
	mov	esi, esp
	push	OFFSET ??_C@_0CL@DPKDKBJD@Erro?3?5Nao?5foi?5possivel?5conectar?5@
	call	DWORD PTR __imp__printf
	add	esp, 4
	cmp	esi, esp
	call	__RTC_CheckEsp
; Line 147
	jmp	$LN23@server_mai
; Line 148
	jmp	$LN16@server_mai
$LN13@server_mai:
; Line 149
	xor	ebx, ebx
	cmp	DWORD PTR ?host_socktype@@3HA, 0	; host_socktype
	sete	bl
	push	5
	mov	eax, DWORD PTR ?hSocket@@3IA		; hSocket
	push	eax
	call	_listen@8
	xor	ecx, ecx
	cmp	eax, -1
	sete	cl
	and	ebx, ecx
	je	SHORT $LN11@server_mai
; Line 150
	mov	esi, esp
	push	OFFSET ??_C@_0BI@EKHGLDNK@Erro?3?5?8Listen?8?5falhou?4?6?$AA@
	call	DWORD PTR __imp__printf
	add	esp, 4
	cmp	esi, esp
	call	__RTC_CheckEsp
; Line 151
	jmp	$LN23@server_mai
$LN11@server_mai:
; Line 153
	mov	esi, esp
	push	OFFSET ??_C@_0DP@NMPIKIHI@Conexao?5criada?5com?5sucesso?$CB?6Inic@
	call	DWORD PTR __imp__printf
	add	esp, 4
	cmp	esi, esp
	call	__RTC_CheckEsp
; Line 154
	mov	DWORD PTR ?pSLoopFunc@@3PAXA, OFFSET ?serverloop@@YAXXZ ; pSLoopFunc, serverloop
; Line 155
	mov	DWORD PTR ?pCLientFunc@@3PAXA, OFFSET ?clientloop@@YAXH@Z ; pCLientFunc, clientloop
; Line 156
	mov	esi, esp
	push	OFFSET ?dwSLoopThread@@3KA		; dwSLoopThread
	push	0
	push	0
	mov	eax, DWORD PTR ?pSLoopFunc@@3PAXA	; pSLoopFunc
	push	eax
	push	0
	push	0
	call	DWORD PTR __imp__CreateThread@24
	cmp	esi, esp
	call	__RTC_CheckEsp
	mov	DWORD PTR ?hSLoopThread@@3PAXA, eax	; hSLoopThread
$LN10@server_mai:
; Line 157
	movzx	eax, BYTE PTR ?exit_cmd@@3_NA		; exit_cmd
	test	eax, eax
	jne	SHORT $LN9@server_mai
; Line 158
	mov	esi, esp
	push	122					; 0000007aH
	call	DWORD PTR __imp__GetAsyncKeyState@4
	cmp	esi, esp
	call	__RTC_CheckEsp
	movsx	esi, ax
	sar	esi, 8
	mov	edi, esp
	push	163					; 000000a3H
	call	DWORD PTR __imp__GetAsyncKeyState@4
	cmp	edi, esp
	call	__RTC_CheckEsp
	cwde
	sar	eax, 8
	and	esi, eax
	je	SHORT $LN8@server_mai
; Line 159
	mov	BYTE PTR ?exit_cmd@@3_NA, 1		; exit_cmd
$LN8@server_mai:
; Line 160
	jmp	SHORT $LN10@server_mai
$LN9@server_mai:
; Line 161
	mov	esi, esp
	push	OFFSET ??_C@_0CF@INJEIDAA@Finalizando?5recepcao?5de?5usuarios@
	call	DWORD PTR __imp__printf
	add	esp, 4
	cmp	esi, esp
	call	__RTC_CheckEsp
; Line 162
	mov	DWORD PTR _lpExitCode$86852[ebp], 0
; Line 163
	mov	esi, esp
	mov	eax, DWORD PTR _lpExitCode$86852[ebp]
	push	eax
	mov	ecx, DWORD PTR ?hSLoopThread@@3PAXA	; hSLoopThread
	push	ecx
	call	DWORD PTR __imp__TerminateThread@8
	cmp	esi, esp
	call	__RTC_CheckEsp
; Line 164
	mov	esi, esp
	push	OFFSET ??_C@_0CC@NDIIDJKG@Recepcao?5de?5usuarios?5finalizada?$CB@
	call	DWORD PTR __imp__printf
	add	esp, 4
	cmp	esi, esp
	call	__RTC_CheckEsp
; Line 165
	mov	esi, esp
	push	OFFSET ??_C@_0BO@FJJILPNP@Desconectando?5os?5usuarios?4?4?4?6?$AA@
	call	DWORD PTR __imp__printf
	add	esp, 4
	cmp	esi, esp
	call	__RTC_CheckEsp
; Line 166
	mov	DWORD PTR _ci$86855[ebp], 0
	jmp	SHORT $LN7@server_mai
$LN6@server_mai:
	mov	eax, DWORD PTR _ci$86855[ebp]
	add	eax, 1
	mov	DWORD PTR _ci$86855[ebp], eax
$LN7@server_mai:
	mov	eax, DWORD PTR _ci$86855[ebp]
	cmp	eax, DWORD PTR ?connect_id@@3HA		; connect_id
	jge	$LN5@server_mai
; Line 167
	mov	DWORD PTR _lpExitCode$86852[ebp], 259	; 00000103H
$LN4@server_mai:
; Line 168
	cmp	DWORD PTR _lpExitCode$86852[ebp], 259	; 00000103H
	jne	SHORT $LN3@server_mai
; Line 169
	mov	ecx, DWORD PTR _ci$86855[ebp]
	imul	ecx, 88					; 00000058H
	add	ecx, DWORD PTR ?client_list@@3PAVClient@@A ; client_list
	call	?disconect@Client@@QAEXXZ		; Client::disconect
; Line 170
	mov	esi, esp
	lea	eax, DWORD PTR _lpExitCode$86852[ebp]
	push	eax
	mov	ecx, DWORD PTR _ci$86855[ebp]
	imul	ecx, 88					; 00000058H
	mov	edx, DWORD PTR ?client_list@@3PAVClient@@A ; client_list
	mov	eax, DWORD PTR [edx+ecx+24]
	push	eax
	call	DWORD PTR __imp__GetExitCodeThread@8
	cmp	esi, esp
	call	__RTC_CheckEsp
; Line 171
	jmp	SHORT $LN4@server_mai
$LN3@server_mai:
; Line 172
	mov	eax, DWORD PTR ?connect_id@@3HA		; connect_id
	sub	eax, 1
	mov	esi, esp
	push	eax
	mov	ecx, DWORD PTR _ci$86855[ebp]
	push	ecx
	push	OFFSET ??_C@_0CA@NNKBAGPG@Usuario?5?$CFi?5de?5?$CFi?5desconectado?$CB?6?$AA@
	call	DWORD PTR __imp__printf
	add	esp, 12					; 0000000cH
	cmp	esi, esp
	call	__RTC_CheckEsp
; Line 173
	jmp	$LN6@server_mai
$LN5@server_mai:
; Line 174
	mov	esi, esp
	push	OFFSET ??_C@_0DD@LDGFFKDJ@Todos?5os?5usarios?5foram?5desconect@
	call	DWORD PTR __imp__printf
	add	esp, 4
	cmp	esi, esp
	call	__RTC_CheckEsp
$LN16@server_mai:
; Line 177
	mov	eax, DWORD PTR ?hSocket@@3IA		; hSocket
	push	eax
	call	_closesocket@4
; Line 178
	jmp	SHORT $LN2@server_mai
$LN21@server_mai:
; Line 179
	mov	esi, esp
	push	OFFSET ??_C@_0DL@DMIOLLCN@Erro?3?5E?5necessario?5ter?5no?5minimo@
	call	DWORD PTR __imp__printf
	add	esp, 4
	cmp	esi, esp
	call	__RTC_CheckEsp
; Line 180
	jmp	SHORT $LN23@server_mai
$LN2@server_mai:
; Line 182
	jmp	SHORT $LN23@server_mai
$LN22@server_mai:
; Line 183
	mov	esi, esp
	push	OFFSET ??_C@_0DC@BJKIBHJF@Erro?3?5Nao?5foi?5possivel?5inciar?5a?5@
	call	DWORD PTR __imp__printf
	add	esp, 4
	cmp	esi, esp
	call	__RTC_CheckEsp
$LN23@server_mai:
; Line 187
	push	edx
	mov	ecx, ebp
	push	eax
	lea	edx, DWORD PTR $LN29@server_mai
	call	@_RTC_CheckStackVars@8
	pop	eax
	pop	edx
	pop	edi
	pop	esi
	pop	ebx
	mov	ecx, DWORD PTR __$ArrayPad$[ebp]
	xor	ecx, ebp
	call	@__security_check_cookie@4
	add	esp, 652				; 0000028cH
	cmp	ebp, esp
	call	__RTC_CheckEsp
	mov	esp, ebp
	pop	ebp
	ret	0
$LN29@server_mai:
	DD	3
	DD	$LN28@server_mai
$LN28@server_mai:
	DD	-408					; fffffe68H
	DD	400					; 00000190H
	DD	$LN25@server_mai
	DD	-432					; fffffe50H
	DD	16					; 00000010H
	DD	$LN26@server_mai
	DD	-444					; fffffe44H
	DD	4
	DD	$LN27@server_mai
$LN27@server_mai:
	DB	108					; 0000006cH
	DB	112					; 00000070H
	DB	69					; 00000045H
	DB	120					; 00000078H
	DB	105					; 00000069H
	DB	116					; 00000074H
	DB	67					; 00000043H
	DB	111					; 0000006fH
	DB	100					; 00000064H
	DB	101					; 00000065H
	DB	0
$LN26@server_mai:
	DB	115					; 00000073H
	DB	97					; 00000061H
	DB	83					; 00000053H
	DB	101					; 00000065H
	DB	118					; 00000076H
	DB	101					; 00000065H
	DB	114					; 00000072H
	DB	0
$LN25@server_mai:
	DB	119					; 00000077H
	DB	115					; 00000073H
	DB	97					; 00000061H
	DB	68					; 00000044H
	DB	97					; 00000061H
	DB	116					; 00000074H
	DB	97					; 00000061H
	DB	0
?server_main@@YAXXZ ENDP				; server_main
_TEXT	ENDS
PUBLIC	??_C@_08FNGIOLIF@?$FLRIfail?$FN?$AA@		; `string'
PUBLIC	__$ArrayPad$
PUBLIC	?read_inii@@YAHPAD00H@Z				; read_inii
EXTRN	__imp__GetPrivateProfileStringA@24:PROC
;	COMDAT ??_C@_08FNGIOLIF@?$FLRIfail?$FN?$AA@
CONST	SEGMENT
??_C@_08FNGIOLIF@?$FLRIfail?$FN?$AA@ DB '[RIfail]', 00H	; `string'
; Function compile flags: /Odtp /RTCsu /ZI
CONST	ENDS
;	COMDAT ?read_inii@@YAHPAD00H@Z
_TEXT	SEGMENT
_y$ = -40						; size = 32
__$ArrayPad$ = -4					; size = 4
_section$ = 8						; size = 4
_key$ = 12						; size = 4
_file$ = 16						; size = 4
_idefault$ = 20						; size = 4
?read_inii@@YAHPAD00H@Z PROC				; read_inii, COMDAT
; Line 189
	push	ebp
	mov	ebp, esp
	sub	esp, 236				; 000000ecH
	push	ebx
	push	esi
	push	edi
	lea	edi, DWORD PTR [ebp-236]
	mov	ecx, 59					; 0000003bH
	mov	eax, -858993460				; ccccccccH
	rep stosd
	mov	eax, DWORD PTR ___security_cookie
	xor	eax, ebp
	mov	DWORD PTR __$ArrayPad$[ebp], eax
; Line 191
	mov	esi, esp
	mov	eax, DWORD PTR _file$[ebp]
	push	eax
	push	32					; 00000020H
	lea	ecx, DWORD PTR _y$[ebp]
	push	ecx
	push	OFFSET ??_C@_08FNGIOLIF@?$FLRIfail?$FN?$AA@
	mov	edx, DWORD PTR _key$[ebp]
	push	edx
	mov	eax, DWORD PTR _section$[ebp]
	push	eax
	call	DWORD PTR __imp__GetPrivateProfileStringA@24
	cmp	esi, esp
	call	__RTC_CheckEsp
; Line 192
	push	OFFSET ??_C@_08FNGIOLIF@?$FLRIfail?$FN?$AA@
	lea	eax, DWORD PTR _y$[ebp]
	push	eax
	call	_strcmp
	add	esp, 8
	test	eax, eax
	jne	SHORT $LN2@read_inii
; Line 193
	mov	eax, DWORD PTR _idefault$[ebp]
	jmp	SHORT $LN3@read_inii
; Line 194
	jmp	SHORT $LN3@read_inii
$LN2@read_inii:
; Line 195
	mov	esi, esp
	lea	eax, DWORD PTR _y$[ebp]
	push	eax
	call	DWORD PTR __imp__atoi
	add	esp, 4
	cmp	esi, esp
	call	__RTC_CheckEsp
$LN3@read_inii:
; Line 196
	push	edx
	mov	ecx, ebp
	push	eax
	lea	edx, DWORD PTR $LN7@read_inii
	call	@_RTC_CheckStackVars@8
	pop	eax
	pop	edx
	pop	edi
	pop	esi
	pop	ebx
	mov	ecx, DWORD PTR __$ArrayPad$[ebp]
	xor	ecx, ebp
	call	@__security_check_cookie@4
	add	esp, 236				; 000000ecH
	cmp	ebp, esp
	call	__RTC_CheckEsp
	mov	esp, ebp
	pop	ebp
	ret	0
	npad	1
$LN7@read_inii:
	DD	1
	DD	$LN6@read_inii
$LN6@read_inii:
	DD	-40					; ffffffd8H
	DD	32					; 00000020H
	DD	$LN5@read_inii
$LN5@read_inii:
	DB	121					; 00000079H
	DB	0
?read_inii@@YAHPAD00H@Z ENDP				; read_inii
_TEXT	ENDS
PUBLIC	??_C@_08IOEOHAJM@DATABASE?$AA@			; `string'
PUBLIC	??_C@_06HBINFOF@phlcdb?$AA@			; `string'
PUBLIC	??_C@_04NNAKGGAP@PASS?$AA@			; `string'
PUBLIC	??_C@_04OOEKJIOI@USER?$AA@			; `string'
PUBLIC	??_C@_04NBFCGMPH@root?$AA@			; `string'
PUBLIC	??_C@_05CAPCAOJG@MYSQL?$AA@			; `string'
PUBLIC	??_C@_09PFCHIMEP@127?40?40?41?$AA@		; `string'
PUBLIC	??_C@_08CIMMGPDL@SOCKTYPE?$AA@			; `string'
PUBLIC	??_C@_08LCLCBKLL@MAXUSERS?$AA@			; `string'
PUBLIC	??_C@_04HDFGONMM@PORT?$AA@			; `string'
PUBLIC	??_C@_04CCAEFLLI@HOST?$AA@			; `string'
PUBLIC	??_C@_04LHCGKMLL@ADDR?$AA@			; `string'
PUBLIC	??_C@_0BB@PFLHJHKO@?4?2server?9cfg?4ini?$AA@	; `string'
PUBLIC	__$ArrayPad$
PUBLIC	?load_servercfgs@@YAXXZ				; load_servercfgs
;	COMDAT ??_C@_08IOEOHAJM@DATABASE?$AA@
CONST	SEGMENT
??_C@_08IOEOHAJM@DATABASE?$AA@ DB 'DATABASE', 00H	; `string'
CONST	ENDS
;	COMDAT ??_C@_06HBINFOF@phlcdb?$AA@
CONST	SEGMENT
??_C@_06HBINFOF@phlcdb?$AA@ DB 'phlcdb', 00H		; `string'
CONST	ENDS
;	COMDAT ??_C@_04NNAKGGAP@PASS?$AA@
CONST	SEGMENT
??_C@_04NNAKGGAP@PASS?$AA@ DB 'PASS', 00H		; `string'
CONST	ENDS
;	COMDAT ??_C@_04OOEKJIOI@USER?$AA@
CONST	SEGMENT
??_C@_04OOEKJIOI@USER?$AA@ DB 'USER', 00H		; `string'
CONST	ENDS
;	COMDAT ??_C@_04NBFCGMPH@root?$AA@
CONST	SEGMENT
??_C@_04NBFCGMPH@root?$AA@ DB 'root', 00H		; `string'
CONST	ENDS
;	COMDAT ??_C@_05CAPCAOJG@MYSQL?$AA@
CONST	SEGMENT
??_C@_05CAPCAOJG@MYSQL?$AA@ DB 'MYSQL', 00H		; `string'
CONST	ENDS
;	COMDAT ??_C@_09PFCHIMEP@127?40?40?41?$AA@
CONST	SEGMENT
??_C@_09PFCHIMEP@127?40?40?41?$AA@ DB '127.0.0.1', 00H	; `string'
CONST	ENDS
;	COMDAT ??_C@_08CIMMGPDL@SOCKTYPE?$AA@
CONST	SEGMENT
??_C@_08CIMMGPDL@SOCKTYPE?$AA@ DB 'SOCKTYPE', 00H	; `string'
CONST	ENDS
;	COMDAT ??_C@_08LCLCBKLL@MAXUSERS?$AA@
CONST	SEGMENT
??_C@_08LCLCBKLL@MAXUSERS?$AA@ DB 'MAXUSERS', 00H	; `string'
CONST	ENDS
;	COMDAT ??_C@_04HDFGONMM@PORT?$AA@
CONST	SEGMENT
??_C@_04HDFGONMM@PORT?$AA@ DB 'PORT', 00H		; `string'
CONST	ENDS
;	COMDAT ??_C@_04CCAEFLLI@HOST?$AA@
CONST	SEGMENT
??_C@_04CCAEFLLI@HOST?$AA@ DB 'HOST', 00H		; `string'
CONST	ENDS
;	COMDAT ??_C@_04LHCGKMLL@ADDR?$AA@
CONST	SEGMENT
??_C@_04LHCGKMLL@ADDR?$AA@ DB 'ADDR', 00H		; `string'
CONST	ENDS
;	COMDAT ??_C@_0BB@PFLHJHKO@?4?2server?9cfg?4ini?$AA@
CONST	SEGMENT
??_C@_0BB@PFLHJHKO@?4?2server?9cfg?4ini?$AA@ DB '.\server-cfg.ini', 00H ; `string'
; Function compile flags: /Odtp /RTCsu /ZI
CONST	ENDS
;	COMDAT ?load_servercfgs@@YAXXZ
_TEXT	SEGMENT
_filename$ = -28					; size = 17
__$ArrayPad$ = -4					; size = 4
?load_servercfgs@@YAXXZ PROC				; load_servercfgs, COMDAT
; Line 198
	push	ebp
	mov	ebp, esp
	sub	esp, 224				; 000000e0H
	push	ebx
	push	esi
	push	edi
	lea	edi, DWORD PTR [ebp-224]
	mov	ecx, 56					; 00000038H
	mov	eax, -858993460				; ccccccccH
	rep stosd
	mov	eax, DWORD PTR ___security_cookie
	xor	eax, ebp
	mov	DWORD PTR __$ArrayPad$[ebp], eax
; Line 199
	mov	eax, DWORD PTR ??_C@_0BB@PFLHJHKO@?4?2server?9cfg?4ini?$AA@
	mov	DWORD PTR _filename$[ebp], eax
	mov	ecx, DWORD PTR ??_C@_0BB@PFLHJHKO@?4?2server?9cfg?4ini?$AA@+4
	mov	DWORD PTR _filename$[ebp+4], ecx
	mov	edx, DWORD PTR ??_C@_0BB@PFLHJHKO@?4?2server?9cfg?4ini?$AA@+8
	mov	DWORD PTR _filename$[ebp+8], edx
	mov	eax, DWORD PTR ??_C@_0BB@PFLHJHKO@?4?2server?9cfg?4ini?$AA@+12
	mov	DWORD PTR _filename$[ebp+12], eax
	mov	cl, BYTE PTR ??_C@_0BB@PFLHJHKO@?4?2server?9cfg?4ini?$AA@+16
	mov	BYTE PTR _filename$[ebp+16], cl
; Line 200
	mov	esi, esp
	lea	eax, DWORD PTR _filename$[ebp]
	push	eax
	push	16					; 00000010H
	push	OFFSET ?host_addr@@3PADA		; host_addr
	push	OFFSET ??_C@_03OMGOFJGM@ANY?$AA@
	push	OFFSET ??_C@_04LHCGKMLL@ADDR?$AA@
	push	OFFSET ??_C@_04CCAEFLLI@HOST?$AA@
	call	DWORD PTR __imp__GetPrivateProfileStringA@24
	cmp	esi, esp
	call	__RTC_CheckEsp
; Line 201
	push	3309					; 00000cedH
	lea	eax, DWORD PTR _filename$[ebp]
	push	eax
	push	OFFSET ??_C@_04HDFGONMM@PORT?$AA@
	push	OFFSET ??_C@_04CCAEFLLI@HOST?$AA@
	call	?read_inii@@YAHPAD00H@Z			; read_inii
	add	esp, 16					; 00000010H
	mov	DWORD PTR ?host_port@@3HA, eax		; host_port
; Line 202
	push	99999					; 0001869fH
	lea	eax, DWORD PTR _filename$[ebp]
	push	eax
	push	OFFSET ??_C@_08LCLCBKLL@MAXUSERS?$AA@
	push	OFFSET ??_C@_04CCAEFLLI@HOST?$AA@
	call	?read_inii@@YAHPAD00H@Z			; read_inii
	add	esp, 16					; 00000010H
	mov	DWORD PTR ?host_maxuser@@3HA, eax	; host_maxuser
; Line 203
	push	0
	lea	eax, DWORD PTR _filename$[ebp]
	push	eax
	push	OFFSET ??_C@_08CIMMGPDL@SOCKTYPE?$AA@
	push	OFFSET ??_C@_04CCAEFLLI@HOST?$AA@
	call	?read_inii@@YAHPAD00H@Z			; read_inii
	add	esp, 16					; 00000010H
	mov	DWORD PTR ?host_socktype@@3HA, eax	; host_socktype
; Line 204
	mov	esi, esp
	lea	eax, DWORD PTR _filename$[ebp]
	push	eax
	push	16					; 00000010H
	push	OFFSET ?mysql_addr@@3PADA		; mysql_addr
	push	OFFSET ??_C@_09PFCHIMEP@127?40?40?41?$AA@
	push	OFFSET ??_C@_04LHCGKMLL@ADDR?$AA@
	push	OFFSET ??_C@_05CAPCAOJG@MYSQL?$AA@
	call	DWORD PTR __imp__GetPrivateProfileStringA@24
	cmp	esi, esp
	call	__RTC_CheckEsp
; Line 205
	mov	esi, esp
	lea	eax, DWORD PTR _filename$[ebp]
	push	eax
	push	66					; 00000042H
	push	OFFSET ?mysql_user@@3PADA		; mysql_user
	push	OFFSET ??_C@_04NBFCGMPH@root?$AA@
	push	OFFSET ??_C@_04OOEKJIOI@USER?$AA@
	push	OFFSET ??_C@_05CAPCAOJG@MYSQL?$AA@
	call	DWORD PTR __imp__GetPrivateProfileStringA@24
	cmp	esi, esp
	call	__RTC_CheckEsp
; Line 206
	mov	esi, esp
	lea	eax, DWORD PTR _filename$[ebp]
	push	eax
	push	66					; 00000042H
	push	OFFSET ?mysql_pass@@3PADA		; mysql_pass
	push	OFFSET ??_C@_00CNPNBAHC@?$AA@
	push	OFFSET ??_C@_04NNAKGGAP@PASS?$AA@
	push	OFFSET ??_C@_05CAPCAOJG@MYSQL?$AA@
	call	DWORD PTR __imp__GetPrivateProfileStringA@24
	cmp	esi, esp
	call	__RTC_CheckEsp
; Line 207
	mov	esi, esp
	lea	eax, DWORD PTR _filename$[ebp]
	push	eax
	push	66					; 00000042H
	push	OFFSET ?mysql_database@@3PADA		; mysql_database
	push	OFFSET ??_C@_06HBINFOF@phlcdb?$AA@
	push	OFFSET ??_C@_08IOEOHAJM@DATABASE?$AA@
	push	OFFSET ??_C@_05CAPCAOJG@MYSQL?$AA@
	call	DWORD PTR __imp__GetPrivateProfileStringA@24
	cmp	esi, esp
	call	__RTC_CheckEsp
; Line 208
	push	0
	lea	eax, DWORD PTR _filename$[ebp]
	push	eax
	push	OFFSET ??_C@_04HDFGONMM@PORT?$AA@
	push	OFFSET ??_C@_05CAPCAOJG@MYSQL?$AA@
	call	?read_inii@@YAHPAD00H@Z			; read_inii
	add	esp, 16					; 00000010H
	mov	DWORD PTR ?mysql_cfgport@@3HA, eax	; mysql_cfgport
; Line 209
	push	edx
	mov	ecx, ebp
	push	eax
	lea	edx, DWORD PTR $LN5@load_serve
	call	@_RTC_CheckStackVars@8
	pop	eax
	pop	edx
	pop	edi
	pop	esi
	pop	ebx
	mov	ecx, DWORD PTR __$ArrayPad$[ebp]
	xor	ecx, ebp
	call	@__security_check_cookie@4
	add	esp, 224				; 000000e0H
	cmp	ebp, esp
	call	__RTC_CheckEsp
	mov	esp, ebp
	pop	ebp
	ret	0
	npad	3
$LN5@load_serve:
	DD	1
	DD	$LN4@load_serve
$LN4@load_serve:
	DD	-28					; ffffffe4H
	DD	17					; 00000011H
	DD	$LN3@load_serve
$LN3@load_serve:
	DB	102					; 00000066H
	DB	105					; 00000069H
	DB	108					; 0000006cH
	DB	101					; 00000065H
	DB	110					; 0000006eH
	DB	97					; 00000061H
	DB	109					; 0000006dH
	DB	101					; 00000065H
	DB	0
?load_servercfgs@@YAXXZ ENDP				; load_servercfgs
_TEXT	ENDS
PUBLIC	??_C@_0L@KFGNCEBD@Erro?3?5?$CFs?4?6?$AA@	; `string'
PUBLIC	??_C@_0BM@PIHMGILP@Erro?3?5?8WSACleanup?8?5falhou?4?6?$AA@ ; `string'
PUBLIC	??_C@_0FG@IKPOIKLM@Conectado?5a?5MySQL?5com?5sucesso?$CB?6P@ ; `string'
PUBLIC	??_C@_0DK@LBHBAKND@Conectando?5a?5MySQL?5via?3?5IP?5?$CFs?5PO@ ; `string'
PUBLIC	??_C@_0CG@LKJNHHEI@O?5servidor?5esta?5utilizando?5?$CCwins@ ; `string'
PUBLIC	??_C@_1FM@LBBIGCBO@?$AA?$CK?$AA?7?$AAA?$AAs?$AAs?$AAi?$AAs?$AAt?$AA?j?$AAn?$AAc?$AAi?$AAa?$AA?5?$AAP?$AAl?$AAu?$AAg?$AAa?$AAn?$AAe?$AAt?$AA?6?$AA?$CK?$AA?7?$AAC?$AAr?$AAi?$AAa?$AAd?$AAo?$AA?5@ ; `string'
PUBLIC	??_C@_03LCPHGAHP@cls?$AA@			; `string'
PUBLIC	??_C@_0M@HLAEFKGI@?4?2debug?4txt?$AA@		; `string'
PUBLIC	??_C@_01NOFIACDB@w?$AA@				; `string'
PUBLIC	??_C@_08JFBMGEOC@?9nogetch?$AA@			; `string'
PUBLIC	??_C@_0M@ILCEILM@?9printdebug?$AA@		; `string'
PUBLIC	_main
PUBLIC	??_R0PAD@8					; char * `RTTI Type Descriptor'
EXTRN	__imp__fclose:PROC
EXTRN	_WSACleanup@0:PROC
EXTRN	??_U@YAPAXI@Z:PROC				; operator new[]
EXTRN	__imp__wprintf:PROC
EXTRN	__imp__system:PROC
EXTRN	__imp__fopen_s:PROC
EXTRN	__imp__EnableMenuItem@12:PROC
EXTRN	__imp__GetSystemMenu@8:PROC
EXTRN	__imp__GetConsoleWindow@0:PROC
EXTRN	___CxxFrameHandler3:PROC
EXTRN	??_7type_info@@6B@:QWORD			; type_info::`vftable'
;	COMDAT ??_R0PAD@8
_DATA	SEGMENT
??_R0PAD@8 DD	FLAT:??_7type_info@@6B@			; char * `RTTI Type Descriptor'
	DD	00H
	DB	'.PAD', 00H
_DATA	ENDS
;	COMDAT ??_C@_0L@KFGNCEBD@Erro?3?5?$CFs?4?6?$AA@
CONST	SEGMENT
??_C@_0L@KFGNCEBD@Erro?3?5?$CFs?4?6?$AA@ DB 'Erro: %s.', 0aH, 00H ; `string'
CONST	ENDS
;	COMDAT ??_C@_0BM@PIHMGILP@Erro?3?5?8WSACleanup?8?5falhou?4?6?$AA@
CONST	SEGMENT
??_C@_0BM@PIHMGILP@Erro?3?5?8WSACleanup?8?5falhou?4?6?$AA@ DB 'Erro: ''WS'
	DB	'ACleanup'' falhou.', 0aH, 00H		; `string'
CONST	ENDS
;	COMDAT ??_C@_0FG@IKPOIKLM@Conectado?5a?5MySQL?5com?5sucesso?$CB?6P@
CONST	SEGMENT
??_C@_0FG@IKPOIKLM@Conectado?5a?5MySQL?5com?5sucesso?$CB?6P@ DB 'Conectad'
	DB	'o a MySQL com sucesso!', 0aH, 'Pressione Ctrl(Direito)+F11 pa'
	DB	'ra encerrar o servidor!', 0aH, 00H		; `string'
CONST	ENDS
;	COMDAT ??_C@_0DK@LBHBAKND@Conectando?5a?5MySQL?5via?3?5IP?5?$CFs?5PO@
CONST	SEGMENT
??_C@_0DK@LBHBAKND@Conectando?5a?5MySQL?5via?3?5IP?5?$CFs?5PO@ DB 'Conect'
	DB	'ando a MySQL via: IP %s PORTA %i USER %s DB %s ...', 0aH, 00H ; `string'
CONST	ENDS
;	COMDAT ??_C@_0CG@LKJNHHEI@O?5servidor?5esta?5utilizando?5?$CCwins@
CONST	SEGMENT
??_C@_0CG@LKJNHHEI@O?5servidor?5esta?5utilizando?5?$CCwins@ DB 'O servido'
	DB	'r esta utilizando "winsock".', 00H		; `string'
CONST	ENDS
;	COMDAT ??_C@_1FM@LBBIGCBO@?$AA?$CK?$AA?7?$AAA?$AAs?$AAs?$AAi?$AAs?$AAt?$AA?j?$AAn?$AAc?$AAi?$AAa?$AA?5?$AAP?$AAl?$AAu?$AAg?$AAa?$AAn?$AAe?$AAt?$AA?6?$AA?$CK?$AA?7?$AAC?$AAr?$AAi?$AAa?$AAd?$AAo?$AA?5@
CONST	SEGMENT
??_C@_1FM@LBBIGCBO@?$AA?$CK?$AA?7?$AAA?$AAs?$AAs?$AAi?$AAs?$AAt?$AA?j?$AAn?$AAc?$AAi?$AAa?$AA?5?$AAP?$AAl?$AAu?$AAg?$AAa?$AAn?$AAe?$AAt?$AA?6?$AA?$CK?$AA?7?$AAC?$AAr?$AAi?$AAa?$AAd?$AAo?$AA?5@ DB '*'
	DB	00H, 09H, 00H, 'A', 00H, 's', 00H, 's', 00H, 'i', 00H, 's', 00H
	DB	't', 00H, 0eaH, 00H, 'n', 00H, 'c', 00H, 'i', 00H, 'a', 00H, ' '
	DB	00H, 'P', 00H, 'l', 00H, 'u', 00H, 'g', 00H, 'a', 00H, 'n', 00H
	DB	'e', 00H, 't', 00H, 0aH, 00H, '*', 00H, 09H, 00H, 'C', 00H, 'r'
	DB	00H, 'i', 00H, 'a', 00H, 'd', 00H, 'o', 00H, ' ', 00H, 'p', 00H
	DB	'o', 00H, 'r', 00H, ' ', 00H, 'P', 00H, 'e', 00H, 'd', 00H, 'r'
	DB	00H, 'o', 00H, 'H', 00H, 'L', 00H, 'C', 00H, 0aH, 00H, 00H, 00H ; `string'
CONST	ENDS
;	COMDAT ??_C@_03LCPHGAHP@cls?$AA@
CONST	SEGMENT
??_C@_03LCPHGAHP@cls?$AA@ DB 'cls', 00H			; `string'
CONST	ENDS
;	COMDAT ??_C@_0M@HLAEFKGI@?4?2debug?4txt?$AA@
CONST	SEGMENT
??_C@_0M@HLAEFKGI@?4?2debug?4txt?$AA@ DB '.\debug.txt', 00H ; `string'
CONST	ENDS
;	COMDAT ??_C@_01NOFIACDB@w?$AA@
CONST	SEGMENT
??_C@_01NOFIACDB@w?$AA@ DB 'w', 00H			; `string'
CONST	ENDS
;	COMDAT ??_C@_08JFBMGEOC@?9nogetch?$AA@
CONST	SEGMENT
??_C@_08JFBMGEOC@?9nogetch?$AA@ DB '-nogetch', 00H	; `string'
CONST	ENDS
;	COMDAT ??_C@_0M@ILCEILM@?9printdebug?$AA@
CONST	SEGMENT
??_C@_0M@ILCEILM@?9printdebug?$AA@ DB '-printdebug', 00H ; `string'
CONST	ENDS
;	COMDAT xdata$x
xdata$x	SEGMENT
__catchsym$_main$2 DD 00H
	DD	FLAT:??_R0PAD@8
	DD	0ffffffd0H
	DD	FLAT:__catch$_main$0
__unwindtable$_main DD 0ffffffffH
	DD	00H
	DD	0ffffffffH
	DD	00H
__tryblocktable$_main DD 00H
	DD	00H
	DD	01H
	DD	01H
	DD	FLAT:__catchsym$_main$2
__ehfuncinfo$_main DD 019930522H
	DD	02H
	DD	FLAT:__unwindtable$_main
	DD	01H
	DD	FLAT:__tryblocktable$_main
	DD	2 DUP(00H)
	DD	00H
	DD	01H
; Function compile flags: /Odtp /RTCsu /ZI
xdata$x	ENDS
;	COMDAT _main
_TEXT	SEGMENT
$T93569 = -252						; size = 4
_exception_error$86923 = -48				; size = 4
_ai$86902 = -36						; size = 4
_console_hWnd$ = -24					; size = 4
__$EHRec$ = -16						; size = 16
_argc$ = 8						; size = 4
_argv$ = 12						; size = 4
_main	PROC						; COMDAT
; Line 211
	push	ebp
	mov	ebp, esp
	push	-1
	push	__ehhandler$_main
	mov	eax, DWORD PTR fs:0
	push	eax
	push	ecx
	sub	esp, 240				; 000000f0H
	push	ebx
	push	esi
	push	edi
	lea	edi, DWORD PTR [ebp-256]
	mov	ecx, 60					; 0000003cH
	mov	eax, -858993460				; ccccccccH
	rep stosd
	mov	eax, DWORD PTR ___security_cookie
	xor	eax, ebp
	push	eax
	lea	eax, DWORD PTR __$EHRec$[ebp+4]
	mov	DWORD PTR fs:0, eax
	mov	DWORD PTR __$EHRec$[ebp], esp
; Line 212
	mov	esi, esp
	call	DWORD PTR __imp__GetConsoleWindow@0
	cmp	esi, esp
	call	__RTC_CheckEsp
	mov	DWORD PTR _console_hWnd$[ebp], eax
; Line 213
	mov	esi, esp
	push	1
	push	61536					; 0000f060H
	mov	edi, esp
	push	0
	mov	eax, DWORD PTR _console_hWnd$[ebp]
	push	eax
	call	DWORD PTR __imp__GetSystemMenu@8
	cmp	edi, esp
	call	__RTC_CheckEsp
	push	eax
	call	DWORD PTR __imp__EnableMenuItem@12
	cmp	esi, esp
	call	__RTC_CheckEsp
; Line 215
	mov	BYTE PTR ?printdebug@@3_NA, 0		; printdebug
; Line 216
	mov	BYTE PTR ?nogetch@@3_NA, 0		; nogetch
; Line 217
	mov	BYTE PTR ?exit_cmd@@3_NA, 0		; exit_cmd
; Line 218
	cmp	DWORD PTR _argc$[ebp], 0
	jle	SHORT $LN9@main
; Line 219
	mov	DWORD PTR _ai$86902[ebp], 0
	jmp	SHORT $LN8@main
$LN7@main:
	mov	eax, DWORD PTR _ai$86902[ebp]
	add	eax, 1
	mov	DWORD PTR _ai$86902[ebp], eax
$LN8@main:
	mov	eax, DWORD PTR _ai$86902[ebp]
	cmp	eax, DWORD PTR _argc$[ebp]
	jge	SHORT $LN9@main
; Line 220
	push	OFFSET ??_C@_0M@ILCEILM@?9printdebug?$AA@
	mov	eax, DWORD PTR _ai$86902[ebp]
	mov	ecx, DWORD PTR _argv$[ebp]
	mov	edx, DWORD PTR [ecx+eax*4]
	push	edx
	call	_strcmp
	add	esp, 8
	test	eax, eax
	jne	SHORT $LN5@main
; Line 221
	mov	BYTE PTR ?printdebug@@3_NA, 1		; printdebug
	jmp	SHORT $LN4@main
$LN5@main:
; Line 222
	push	OFFSET ??_C@_08JFBMGEOC@?9nogetch?$AA@
	mov	eax, DWORD PTR _ai$86902[ebp]
	mov	ecx, DWORD PTR _argv$[ebp]
	mov	edx, DWORD PTR [ecx+eax*4]
	push	edx
	call	_strcmp
	add	esp, 8
	test	eax, eax
	jne	SHORT $LN4@main
; Line 223
	mov	BYTE PTR ?nogetch@@3_NA, 1		; nogetch
$LN4@main:
; Line 224
	jmp	SHORT $LN7@main
$LN9@main:
; Line 227
	mov	esi, esp
	push	OFFSET ??_C@_01NOFIACDB@w?$AA@
	push	OFFSET ??_C@_0M@HLAEFKGI@?4?2debug?4txt?$AA@
	push	OFFSET ?pDebugFile@@3PAU_iobuf@@A	; pDebugFile
	call	DWORD PTR __imp__fopen_s
	add	esp, 12					; 0000000cH
	cmp	esi, esp
	call	__RTC_CheckEsp
; Line 228
	mov	esi, esp
	push	OFFSET ??_C@_03LCPHGAHP@cls?$AA@
	call	DWORD PTR __imp__system
	add	esp, 4
	cmp	esi, esp
	call	__RTC_CheckEsp
; Line 229
	mov	esi, esp
	push	OFFSET ??_C@_1FM@LBBIGCBO@?$AA?$CK?$AA?7?$AAA?$AAs?$AAs?$AAi?$AAs?$AAt?$AA?j?$AAn?$AAc?$AAi?$AAa?$AA?5?$AAP?$AAl?$AAu?$AAg?$AAa?$AAn?$AAe?$AAt?$AA?6?$AA?$CK?$AA?7?$AAC?$AAr?$AAi?$AAa?$AAd?$AAo?$AA?5@
	call	DWORD PTR __imp__wprintf
	add	esp, 4
	cmp	esi, esp
	call	__RTC_CheckEsp
; Line 231
	mov	esi, esp
	push	OFFSET ??_C@_0CG@LKJNHHEI@O?5servidor?5esta?5utilizando?5?$CCwins@
	call	DWORD PTR __imp__puts
	add	esp, 4
	cmp	esi, esp
	call	__RTC_CheckEsp
; Line 235
	mov	DWORD PTR ?connect_id@@3HA, 0		; connect_id
; Line 236
	call	?load_servercfgs@@YAXXZ			; load_servercfgs
; Line 237
	xor	ecx, ecx
	mov	eax, DWORD PTR ?host_maxuser@@3HA	; host_maxuser
	mov	edx, 88					; 00000058H
	mul	edx
	seto	cl
	neg	ecx
	or	ecx, eax
	push	ecx
	call	??_U@YAPAXI@Z				; operator new[]
	add	esp, 4
	mov	DWORD PTR $T93569[ebp], eax
	mov	eax, DWORD PTR $T93569[ebp]
	mov	DWORD PTR ?client_list@@3PAVClient@@A, eax ; client_list
; Line 238
	mov	esi, esp
	push	OFFSET ?mysql_database@@3PADA		; mysql_database
	push	OFFSET ?mysql_user@@3PADA		; mysql_user
	mov	eax, DWORD PTR ?mysql_cfgport@@3HA	; mysql_cfgport
	push	eax
	push	OFFSET ?mysql_addr@@3PADA		; mysql_addr
	push	OFFSET ??_C@_0DK@LBHBAKND@Conectando?5a?5MySQL?5via?3?5IP?5?$CFs?5PO@
	call	DWORD PTR __imp__printf
	add	esp, 20					; 00000014H
	cmp	esi, esp
	call	__RTC_CheckEsp
; Line 239
	mov	ecx, OFFSET ?smysql@@3VSimpleMysql@@A	; smysql
	call	?init@SimpleMysql@@QAEXXZ		; SimpleMysql::init
; Line 240
	push	0
	push	OFFSET ?mysql_database@@3PADA		; mysql_database
	push	OFFSET ?mysql_pass@@3PADA		; mysql_pass
	push	OFFSET ?mysql_user@@3PADA		; mysql_user
	push	OFFSET ?mysql_addr@@3PADA		; mysql_addr
	mov	ecx, OFFSET ?smysql@@3VSimpleMysql@@A	; smysql
	call	?connect@SimpleMysql@@QAEXPAD000H@Z	; SimpleMysql::connect
; Line 241
	mov	esi, esp
	push	OFFSET ??_C@_0FG@IKPOIKLM@Conectado?5a?5MySQL?5com?5sucesso?$CB?6P@
	call	DWORD PTR __imp__printf
	add	esp, 4
	cmp	esi, esp
	call	__RTC_CheckEsp
; Line 242
	mov	DWORD PTR __$EHRec$[ebp+12], 0
; Line 243
	call	?server_main@@YAXXZ			; server_main
; Line 244
	call	_WSACleanup@0
	test	eax, eax
	je	SHORT $LN1@main
; Line 245
	mov	esi, esp
	push	OFFSET ??_C@_0BM@PIHMGILP@Erro?3?5?8WSACleanup?8?5falhou?4?6?$AA@
	call	DWORD PTR __imp__printf
	add	esp, 4
	cmp	esi, esp
	call	__RTC_CheckEsp
$LN1@main:
	jmp	SHORT $LN12@main
__catch$_main$0:
; Line 248
	mov	esi, esp
	mov	eax, DWORD PTR _exception_error$86923[ebp]
	push	eax
	push	OFFSET ??_C@_0L@KFGNCEBD@Erro?3?5?$CFs?4?6?$AA@
	call	DWORD PTR __imp__printf
	add	esp, 8
	cmp	esi, esp
	call	__RTC_CheckEsp
; Line 249
	mov	DWORD PTR __$EHRec$[ebp+12], -1
	mov	eax, __tryend$_main$1
	ret	0
$LN12@main:
	mov	DWORD PTR __$EHRec$[ebp+12], -1
__tryend$_main$1:
; Line 250
	mov	ecx, OFFSET ?smysql@@3VSimpleMysql@@A	; smysql
	call	?close@SimpleMysql@@QAEXXZ		; SimpleMysql::close
; Line 251
	mov	esi, esp
	mov	eax, DWORD PTR ?pDebugFile@@3PAU_iobuf@@A ; pDebugFile
	push	eax
	call	DWORD PTR __imp__fclose
	add	esp, 4
	cmp	esi, esp
	call	__RTC_CheckEsp
; Line 252
	call	?finish@@YAXXZ				; finish
; Line 253
	xor	eax, eax
; Line 254
	push	edx
	mov	ecx, ebp
	push	eax
	lea	edx, DWORD PTR $LN20@main
	call	@_RTC_CheckStackVars@8
	pop	eax
	pop	edx
	mov	ecx, DWORD PTR __$EHRec$[ebp+4]
	mov	DWORD PTR fs:0, ecx
	pop	ecx
	pop	edi
	pop	esi
	pop	ebx
	add	esp, 256				; 00000100H
	cmp	ebp, esp
	call	__RTC_CheckEsp
	mov	esp, ebp
	pop	ebp
	ret	0
	npad	1
$LN20@main:
	DD	1
	DD	$LN19@main
$LN19@main:
	DD	-48					; ffffffd0H
	DD	4
	DD	$LN17@main
$LN17@main:
	DB	101					; 00000065H
	DB	120					; 00000078H
	DB	99					; 00000063H
	DB	101					; 00000065H
	DB	112					; 00000070H
	DB	116					; 00000074H
	DB	105					; 00000069H
	DB	111					; 0000006fH
	DB	110					; 0000006eH
	DB	95					; 0000005fH
	DB	101					; 00000065H
	DB	114					; 00000072H
	DB	114					; 00000072H
	DB	111					; 0000006fH
	DB	114					; 00000072H
	DB	0
_TEXT	ENDS
;	COMDAT text$x
text$x	SEGMENT
__ehhandler$_main:
	mov	edx, DWORD PTR [esp+8]
	lea	eax, DWORD PTR [edx+12]
	mov	ecx, DWORD PTR [edx-260]
	xor	ecx, eax
	call	@__security_check_cookie@4
	mov	eax, OFFSET __ehfuncinfo$_main
	jmp	___CxxFrameHandler3
text$x	ENDS
_main	ENDP
EXTRN	__imp__vsprintf_s:PROC
; Function compile flags: /Odtp /RTCsu /ZI
;	COMDAT ??$vsprintf_s@$0EAA@@@YAHAAY0EAA@DPBDPAD@Z
_TEXT	SEGMENT
__Dest$ = 8						; size = 4
__Format$ = 12						; size = 4
__Args$ = 16						; size = 4
??$vsprintf_s@$0EAA@@@YAHAAY0EAA@DPBDPAD@Z PROC		; vsprintf_s<1024>, COMDAT
; File c:\program files\microsoft visual studio 10.0\vc\include\stdio.h
; Line 367
	push	ebp
	mov	ebp, esp
	sub	esp, 192				; 000000c0H
	push	ebx
	push	esi
	push	edi
	lea	edi, DWORD PTR [ebp-192]
	mov	ecx, 48					; 00000030H
	mov	eax, -858993460				; ccccccccH
	rep stosd
	mov	esi, esp
	mov	eax, DWORD PTR __Args$[ebp]
	push	eax
	mov	ecx, DWORD PTR __Format$[ebp]
	push	ecx
	push	1024					; 00000400H
	mov	edx, DWORD PTR __Dest$[ebp]
	push	edx
	call	DWORD PTR __imp__vsprintf_s
	add	esp, 16					; 00000010H
	cmp	esi, esp
	call	__RTC_CheckEsp
	pop	edi
	pop	esi
	pop	ebx
	add	esp, 192				; 000000c0H
	cmp	ebp, esp
	call	__RTC_CheckEsp
	mov	esp, ebp
	pop	ebp
	ret	0
??$vsprintf_s@$0EAA@@@YAHAAY0EAA@DPBDPAD@Z ENDP		; vsprintf_s<1024>
_TEXT	ENDS
EXTRN	__imp__strcpy_s:PROC
; Function compile flags: /Odtp /RTCsu /ZI
;	COMDAT ??$strcpy_s@$0CB@@@YAHAAY0CB@DPBD@Z
_TEXT	SEGMENT
__Dest$ = 8						; size = 4
__Source$ = 12						; size = 4
??$strcpy_s@$0CB@@@YAHAAY0CB@DPBD@Z PROC		; strcpy_s<33>, COMDAT
; File c:\program files\microsoft visual studio 10.0\vc\include\string.h
; Line 104
	push	ebp
	mov	ebp, esp
	sub	esp, 192				; 000000c0H
	push	ebx
	push	esi
	push	edi
	lea	edi, DWORD PTR [ebp-192]
	mov	ecx, 48					; 00000030H
	mov	eax, -858993460				; ccccccccH
	rep stosd
	mov	esi, esp
	mov	eax, DWORD PTR __Source$[ebp]
	push	eax
	push	33					; 00000021H
	mov	ecx, DWORD PTR __Dest$[ebp]
	push	ecx
	call	DWORD PTR __imp__strcpy_s
	add	esp, 12					; 0000000cH
	cmp	esi, esp
	call	__RTC_CheckEsp
	pop	edi
	pop	esi
	pop	ebx
	add	esp, 192				; 000000c0H
	cmp	ebp, esp
	call	__RTC_CheckEsp
	mov	esp, ebp
	pop	ebp
	ret	0
??$strcpy_s@$0CB@@@YAHAAY0CB@DPBD@Z ENDP		; strcpy_s<33>
; Function compile flags: /Odtp /RTCsu /ZI
_TEXT	ENDS
;	COMDAT ??$vsprintf_s@$0BAA@@@YAHAAY0BAA@DPBDPAD@Z
_TEXT	SEGMENT
__Dest$ = 8						; size = 4
__Format$ = 12						; size = 4
__Args$ = 16						; size = 4
??$vsprintf_s@$0BAA@@@YAHAAY0BAA@DPBDPAD@Z PROC		; vsprintf_s<256>, COMDAT
; File c:\program files\microsoft visual studio 10.0\vc\include\stdio.h
; Line 367
	push	ebp
	mov	ebp, esp
	sub	esp, 192				; 000000c0H
	push	ebx
	push	esi
	push	edi
	lea	edi, DWORD PTR [ebp-192]
	mov	ecx, 48					; 00000030H
	mov	eax, -858993460				; ccccccccH
	rep stosd
	mov	esi, esp
	mov	eax, DWORD PTR __Args$[ebp]
	push	eax
	mov	ecx, DWORD PTR __Format$[ebp]
	push	ecx
	push	256					; 00000100H
	mov	edx, DWORD PTR __Dest$[ebp]
	push	edx
	call	DWORD PTR __imp__vsprintf_s
	add	esp, 16					; 00000010H
	cmp	esi, esp
	call	__RTC_CheckEsp
	pop	edi
	pop	esi
	pop	ebx
	add	esp, 192				; 000000c0H
	cmp	ebp, esp
	call	__RTC_CheckEsp
	mov	esp, ebp
	pop	ebp
	ret	0
??$vsprintf_s@$0BAA@@@YAHAAY0BAA@DPBDPAD@Z ENDP		; vsprintf_s<256>
_TEXT	ENDS
END
